
flightCtrl_v0.2.elf:     file format elf32-littlearm

Sections:
Idx Name          Size      VMA       LMA       File off  Algn
  0 .isr_vector   0000010c  08000000  08000000  00010000  2**0
                  CONTENTS, ALLOC, LOAD, READONLY, DATA
  1 .text         00002cb4  0800010c  0800010c  0001010c  2**2
                  CONTENTS, ALLOC, LOAD, READONLY, CODE
  2 .rodata       00000070  08002dc0  08002dc0  00012dc0  2**2
                  CONTENTS, ALLOC, LOAD, READONLY, DATA
  3 .ARM.extab    00000000  08002e30  08002e30  00020068  2**0
                  CONTENTS
  4 .ARM          00000000  08002e30  08002e30  00020068  2**0
                  CONTENTS
  5 .preinit_array 00000000  08002e30  08002e30  00020068  2**0
                  CONTENTS, ALLOC, LOAD, DATA
  6 .init_array   00000010  08002e30  08002e30  00012e30  2**2
                  CONTENTS, ALLOC, LOAD, DATA
  7 .fini_array   00000010  08002e40  08002e40  00012e40  2**2
                  CONTENTS, ALLOC, LOAD, DATA
  8 .data         00000068  20000000  08002e50  00020000  2**2
                  CONTENTS, ALLOC, LOAD, DATA
  9 .bss          00000098  20000068  08002eb8  00020068  2**2
                  ALLOC
 10 ._user_heap_stack 00000600  20000100  08002eb8  00020100  2**0
                  ALLOC
 11 .ARM.attributes 00000029  00000000  00000000  00020068  2**0
                  CONTENTS, READONLY
 12 .debug_info   00005f38  00000000  00000000  00020091  2**0
                  CONTENTS, READONLY, DEBUGGING, OCTETS
 13 .debug_abbrev 00001d80  00000000  00000000  00025fc9  2**0
                  CONTENTS, READONLY, DEBUGGING, OCTETS
 14 .debug_aranges 00000770  00000000  00000000  00027d50  2**3
                  CONTENTS, READONLY, DEBUGGING, OCTETS
 15 .debug_ranges 00000698  00000000  00000000  000284c0  2**3
                  CONTENTS, READONLY, DEBUGGING, OCTETS
 16 .debug_macro  00013b11  00000000  00000000  00028b58  2**0
                  CONTENTS, READONLY, DEBUGGING, OCTETS
 17 .debug_line   00005c07  00000000  00000000  0003c669  2**0
                  CONTENTS, READONLY, DEBUGGING, OCTETS
 18 .debug_str    0005da86  00000000  00000000  00042270  2**0
                  CONTENTS, READONLY, DEBUGGING, OCTETS
 19 .comment      00000050  00000000  00000000  0009fcf6  2**0
                  CONTENTS, READONLY
 20 .debug_frame  00001f7c  00000000  00000000  0009fd48  2**2
                  CONTENTS, READONLY, DEBUGGING, OCTETS

Disassembly of section .text:

0800010c <__do_global_dtors_aux>:
 800010c:	b510      	push	{r4, lr}
 800010e:	4c05      	ldr	r4, [pc, #20]	; (8000124 <__do_global_dtors_aux+0x18>)
 8000110:	7823      	ldrb	r3, [r4, #0]
 8000112:	b933      	cbnz	r3, 8000122 <__do_global_dtors_aux+0x16>
 8000114:	4b04      	ldr	r3, [pc, #16]	; (8000128 <__do_global_dtors_aux+0x1c>)
 8000116:	b113      	cbz	r3, 800011e <__do_global_dtors_aux+0x12>
 8000118:	4804      	ldr	r0, [pc, #16]	; (800012c <__do_global_dtors_aux+0x20>)
 800011a:	f3af 8000 	nop.w
 800011e:	2301      	movs	r3, #1
 8000120:	7023      	strb	r3, [r4, #0]
 8000122:	bd10      	pop	{r4, pc}
 8000124:	20000068 	.word	0x20000068
 8000128:	00000000 	.word	0x00000000
 800012c:	08002da8 	.word	0x08002da8

08000130 <frame_dummy>:
 8000130:	b508      	push	{r3, lr}
 8000132:	4b03      	ldr	r3, [pc, #12]	; (8000140 <frame_dummy+0x10>)
 8000134:	b11b      	cbz	r3, 800013e <frame_dummy+0xe>
 8000136:	4903      	ldr	r1, [pc, #12]	; (8000144 <frame_dummy+0x14>)
 8000138:	4803      	ldr	r0, [pc, #12]	; (8000148 <frame_dummy+0x18>)
 800013a:	f3af 8000 	nop.w
 800013e:	bd08      	pop	{r3, pc}
 8000140:	00000000 	.word	0x00000000
 8000144:	2000006c 	.word	0x2000006c
 8000148:	08002da8 	.word	0x08002da8

0800014c <__aeabi_fmul>:
 800014c:	f04f 0cff 	mov.w	ip, #255	; 0xff
 8000150:	ea1c 52d0 	ands.w	r2, ip, r0, lsr #23
 8000154:	bf1e      	ittt	ne
 8000156:	ea1c 53d1 	andsne.w	r3, ip, r1, lsr #23
 800015a:	ea92 0f0c 	teqne	r2, ip
 800015e:	ea93 0f0c 	teqne	r3, ip
 8000162:	d06f      	beq.n	8000244 <__aeabi_fmul+0xf8>
 8000164:	441a      	add	r2, r3
 8000166:	ea80 0c01 	eor.w	ip, r0, r1
 800016a:	0240      	lsls	r0, r0, #9
 800016c:	bf18      	it	ne
 800016e:	ea5f 2141 	movsne.w	r1, r1, lsl #9
 8000172:	d01e      	beq.n	80001b2 <__aeabi_fmul+0x66>
 8000174:	f04f 6300 	mov.w	r3, #134217728	; 0x8000000
 8000178:	ea43 1050 	orr.w	r0, r3, r0, lsr #5
 800017c:	ea43 1151 	orr.w	r1, r3, r1, lsr #5
 8000180:	fba0 3101 	umull	r3, r1, r0, r1
 8000184:	f00c 4000 	and.w	r0, ip, #2147483648	; 0x80000000
 8000188:	f5b1 0f00 	cmp.w	r1, #8388608	; 0x800000
 800018c:	bf3e      	ittt	cc
 800018e:	0049      	lslcc	r1, r1, #1
 8000190:	ea41 71d3 	orrcc.w	r1, r1, r3, lsr #31
 8000194:	005b      	lslcc	r3, r3, #1
 8000196:	ea40 0001 	orr.w	r0, r0, r1
 800019a:	f162 027f 	sbc.w	r2, r2, #127	; 0x7f
 800019e:	2afd      	cmp	r2, #253	; 0xfd
 80001a0:	d81d      	bhi.n	80001de <__aeabi_fmul+0x92>
 80001a2:	f1b3 4f00 	cmp.w	r3, #2147483648	; 0x80000000
 80001a6:	eb40 50c2 	adc.w	r0, r0, r2, lsl #23
 80001aa:	bf08      	it	eq
 80001ac:	f020 0001 	biceq.w	r0, r0, #1
 80001b0:	4770      	bx	lr
 80001b2:	f090 0f00 	teq	r0, #0
 80001b6:	f00c 4c00 	and.w	ip, ip, #2147483648	; 0x80000000
 80001ba:	bf08      	it	eq
 80001bc:	0249      	lsleq	r1, r1, #9
 80001be:	ea4c 2050 	orr.w	r0, ip, r0, lsr #9
 80001c2:	ea40 2051 	orr.w	r0, r0, r1, lsr #9
 80001c6:	3a7f      	subs	r2, #127	; 0x7f
 80001c8:	bfc2      	ittt	gt
 80001ca:	f1d2 03ff 	rsbsgt	r3, r2, #255	; 0xff
 80001ce:	ea40 50c2 	orrgt.w	r0, r0, r2, lsl #23
 80001d2:	4770      	bxgt	lr
 80001d4:	f440 0000 	orr.w	r0, r0, #8388608	; 0x800000
 80001d8:	f04f 0300 	mov.w	r3, #0
 80001dc:	3a01      	subs	r2, #1
 80001de:	dc5d      	bgt.n	800029c <__aeabi_fmul+0x150>
 80001e0:	f112 0f19 	cmn.w	r2, #25
 80001e4:	bfdc      	itt	le
 80001e6:	f000 4000 	andle.w	r0, r0, #2147483648	; 0x80000000
 80001ea:	4770      	bxle	lr
 80001ec:	f1c2 0200 	rsb	r2, r2, #0
 80001f0:	0041      	lsls	r1, r0, #1
 80001f2:	fa21 f102 	lsr.w	r1, r1, r2
 80001f6:	f1c2 0220 	rsb	r2, r2, #32
 80001fa:	fa00 fc02 	lsl.w	ip, r0, r2
 80001fe:	ea5f 0031 	movs.w	r0, r1, rrx
 8000202:	f140 0000 	adc.w	r0, r0, #0
 8000206:	ea53 034c 	orrs.w	r3, r3, ip, lsl #1
 800020a:	bf08      	it	eq
 800020c:	ea20 70dc 	biceq.w	r0, r0, ip, lsr #31
 8000210:	4770      	bx	lr
 8000212:	f092 0f00 	teq	r2, #0
 8000216:	f000 4c00 	and.w	ip, r0, #2147483648	; 0x80000000
 800021a:	bf02      	ittt	eq
 800021c:	0040      	lsleq	r0, r0, #1
 800021e:	f410 0f00 	tsteq.w	r0, #8388608	; 0x800000
 8000222:	3a01      	subeq	r2, #1
 8000224:	d0f9      	beq.n	800021a <__aeabi_fmul+0xce>
 8000226:	ea40 000c 	orr.w	r0, r0, ip
 800022a:	f093 0f00 	teq	r3, #0
 800022e:	f001 4c00 	and.w	ip, r1, #2147483648	; 0x80000000
 8000232:	bf02      	ittt	eq
 8000234:	0049      	lsleq	r1, r1, #1
 8000236:	f411 0f00 	tsteq.w	r1, #8388608	; 0x800000
 800023a:	3b01      	subeq	r3, #1
 800023c:	d0f9      	beq.n	8000232 <__aeabi_fmul+0xe6>
 800023e:	ea41 010c 	orr.w	r1, r1, ip
 8000242:	e78f      	b.n	8000164 <__aeabi_fmul+0x18>
 8000244:	ea0c 53d1 	and.w	r3, ip, r1, lsr #23
 8000248:	ea92 0f0c 	teq	r2, ip
 800024c:	bf18      	it	ne
 800024e:	ea93 0f0c 	teqne	r3, ip
 8000252:	d00a      	beq.n	800026a <__aeabi_fmul+0x11e>
 8000254:	f030 4c00 	bics.w	ip, r0, #2147483648	; 0x80000000
 8000258:	bf18      	it	ne
 800025a:	f031 4c00 	bicsne.w	ip, r1, #2147483648	; 0x80000000
 800025e:	d1d8      	bne.n	8000212 <__aeabi_fmul+0xc6>
 8000260:	ea80 0001 	eor.w	r0, r0, r1
 8000264:	f000 4000 	and.w	r0, r0, #2147483648	; 0x80000000
 8000268:	4770      	bx	lr
 800026a:	f090 0f00 	teq	r0, #0
 800026e:	bf17      	itett	ne
 8000270:	f090 4f00 	teqne	r0, #2147483648	; 0x80000000
 8000274:	4608      	moveq	r0, r1
 8000276:	f091 0f00 	teqne	r1, #0
 800027a:	f091 4f00 	teqne	r1, #2147483648	; 0x80000000
 800027e:	d014      	beq.n	80002aa <__aeabi_fmul+0x15e>
 8000280:	ea92 0f0c 	teq	r2, ip
 8000284:	d101      	bne.n	800028a <__aeabi_fmul+0x13e>
 8000286:	0242      	lsls	r2, r0, #9
 8000288:	d10f      	bne.n	80002aa <__aeabi_fmul+0x15e>
 800028a:	ea93 0f0c 	teq	r3, ip
 800028e:	d103      	bne.n	8000298 <__aeabi_fmul+0x14c>
 8000290:	024b      	lsls	r3, r1, #9
 8000292:	bf18      	it	ne
 8000294:	4608      	movne	r0, r1
 8000296:	d108      	bne.n	80002aa <__aeabi_fmul+0x15e>
 8000298:	ea80 0001 	eor.w	r0, r0, r1
 800029c:	f000 4000 	and.w	r0, r0, #2147483648	; 0x80000000
 80002a0:	f040 40fe 	orr.w	r0, r0, #2130706432	; 0x7f000000
 80002a4:	f440 0000 	orr.w	r0, r0, #8388608	; 0x800000
 80002a8:	4770      	bx	lr
 80002aa:	f040 40fe 	orr.w	r0, r0, #2130706432	; 0x7f000000
 80002ae:	f440 0040 	orr.w	r0, r0, #12582912	; 0xc00000
 80002b2:	4770      	bx	lr

080002b4 <__aeabi_drsub>:
 80002b4:	f081 4100 	eor.w	r1, r1, #2147483648	; 0x80000000
 80002b8:	e002      	b.n	80002c0 <__adddf3>
 80002ba:	bf00      	nop

080002bc <__aeabi_dsub>:
 80002bc:	f083 4300 	eor.w	r3, r3, #2147483648	; 0x80000000

080002c0 <__adddf3>:
 80002c0:	b530      	push	{r4, r5, lr}
 80002c2:	ea4f 0441 	mov.w	r4, r1, lsl #1
 80002c6:	ea4f 0543 	mov.w	r5, r3, lsl #1
 80002ca:	ea94 0f05 	teq	r4, r5
 80002ce:	bf08      	it	eq
 80002d0:	ea90 0f02 	teqeq	r0, r2
 80002d4:	bf1f      	itttt	ne
 80002d6:	ea54 0c00 	orrsne.w	ip, r4, r0
 80002da:	ea55 0c02 	orrsne.w	ip, r5, r2
 80002de:	ea7f 5c64 	mvnsne.w	ip, r4, asr #21
 80002e2:	ea7f 5c65 	mvnsne.w	ip, r5, asr #21
 80002e6:	f000 80e2 	beq.w	80004ae <__adddf3+0x1ee>
 80002ea:	ea4f 5454 	mov.w	r4, r4, lsr #21
 80002ee:	ebd4 5555 	rsbs	r5, r4, r5, lsr #21
 80002f2:	bfb8      	it	lt
 80002f4:	426d      	neglt	r5, r5
 80002f6:	dd0c      	ble.n	8000312 <__adddf3+0x52>
 80002f8:	442c      	add	r4, r5
 80002fa:	ea80 0202 	eor.w	r2, r0, r2
 80002fe:	ea81 0303 	eor.w	r3, r1, r3
 8000302:	ea82 0000 	eor.w	r0, r2, r0
 8000306:	ea83 0101 	eor.w	r1, r3, r1
 800030a:	ea80 0202 	eor.w	r2, r0, r2
 800030e:	ea81 0303 	eor.w	r3, r1, r3
 8000312:	2d36      	cmp	r5, #54	; 0x36
 8000314:	bf88      	it	hi
 8000316:	bd30      	pophi	{r4, r5, pc}
 8000318:	f011 4f00 	tst.w	r1, #2147483648	; 0x80000000
 800031c:	ea4f 3101 	mov.w	r1, r1, lsl #12
 8000320:	f44f 1c80 	mov.w	ip, #1048576	; 0x100000
 8000324:	ea4c 3111 	orr.w	r1, ip, r1, lsr #12
 8000328:	d002      	beq.n	8000330 <__adddf3+0x70>
 800032a:	4240      	negs	r0, r0
 800032c:	eb61 0141 	sbc.w	r1, r1, r1, lsl #1
 8000330:	f013 4f00 	tst.w	r3, #2147483648	; 0x80000000
 8000334:	ea4f 3303 	mov.w	r3, r3, lsl #12
 8000338:	ea4c 3313 	orr.w	r3, ip, r3, lsr #12
 800033c:	d002      	beq.n	8000344 <__adddf3+0x84>
 800033e:	4252      	negs	r2, r2
 8000340:	eb63 0343 	sbc.w	r3, r3, r3, lsl #1
 8000344:	ea94 0f05 	teq	r4, r5
 8000348:	f000 80a7 	beq.w	800049a <__adddf3+0x1da>
 800034c:	f1a4 0401 	sub.w	r4, r4, #1
 8000350:	f1d5 0e20 	rsbs	lr, r5, #32
 8000354:	db0d      	blt.n	8000372 <__adddf3+0xb2>
 8000356:	fa02 fc0e 	lsl.w	ip, r2, lr
 800035a:	fa22 f205 	lsr.w	r2, r2, r5
 800035e:	1880      	adds	r0, r0, r2
 8000360:	f141 0100 	adc.w	r1, r1, #0
 8000364:	fa03 f20e 	lsl.w	r2, r3, lr
 8000368:	1880      	adds	r0, r0, r2
 800036a:	fa43 f305 	asr.w	r3, r3, r5
 800036e:	4159      	adcs	r1, r3
 8000370:	e00e      	b.n	8000390 <__adddf3+0xd0>
 8000372:	f1a5 0520 	sub.w	r5, r5, #32
 8000376:	f10e 0e20 	add.w	lr, lr, #32
 800037a:	2a01      	cmp	r2, #1
 800037c:	fa03 fc0e 	lsl.w	ip, r3, lr
 8000380:	bf28      	it	cs
 8000382:	f04c 0c02 	orrcs.w	ip, ip, #2
 8000386:	fa43 f305 	asr.w	r3, r3, r5
 800038a:	18c0      	adds	r0, r0, r3
 800038c:	eb51 71e3 	adcs.w	r1, r1, r3, asr #31
 8000390:	f001 4500 	and.w	r5, r1, #2147483648	; 0x80000000
 8000394:	d507      	bpl.n	80003a6 <__adddf3+0xe6>
 8000396:	f04f 0e00 	mov.w	lr, #0
 800039a:	f1dc 0c00 	rsbs	ip, ip, #0
 800039e:	eb7e 0000 	sbcs.w	r0, lr, r0
 80003a2:	eb6e 0101 	sbc.w	r1, lr, r1
 80003a6:	f5b1 1f80 	cmp.w	r1, #1048576	; 0x100000
 80003aa:	d31b      	bcc.n	80003e4 <__adddf3+0x124>
 80003ac:	f5b1 1f00 	cmp.w	r1, #2097152	; 0x200000
 80003b0:	d30c      	bcc.n	80003cc <__adddf3+0x10c>
 80003b2:	0849      	lsrs	r1, r1, #1
 80003b4:	ea5f 0030 	movs.w	r0, r0, rrx
 80003b8:	ea4f 0c3c 	mov.w	ip, ip, rrx
 80003bc:	f104 0401 	add.w	r4, r4, #1
 80003c0:	ea4f 5244 	mov.w	r2, r4, lsl #21
 80003c4:	f512 0f80 	cmn.w	r2, #4194304	; 0x400000
 80003c8:	f080 809a 	bcs.w	8000500 <__adddf3+0x240>
 80003cc:	f1bc 4f00 	cmp.w	ip, #2147483648	; 0x80000000
 80003d0:	bf08      	it	eq
 80003d2:	ea5f 0c50 	movseq.w	ip, r0, lsr #1
 80003d6:	f150 0000 	adcs.w	r0, r0, #0
 80003da:	eb41 5104 	adc.w	r1, r1, r4, lsl #20
 80003de:	ea41 0105 	orr.w	r1, r1, r5
 80003e2:	bd30      	pop	{r4, r5, pc}
 80003e4:	ea5f 0c4c 	movs.w	ip, ip, lsl #1
 80003e8:	4140      	adcs	r0, r0
 80003ea:	eb41 0101 	adc.w	r1, r1, r1
 80003ee:	3c01      	subs	r4, #1
 80003f0:	bf28      	it	cs
 80003f2:	f5b1 1f80 	cmpcs.w	r1, #1048576	; 0x100000
 80003f6:	d2e9      	bcs.n	80003cc <__adddf3+0x10c>
 80003f8:	f091 0f00 	teq	r1, #0
 80003fc:	bf04      	itt	eq
 80003fe:	4601      	moveq	r1, r0
 8000400:	2000      	moveq	r0, #0
 8000402:	fab1 f381 	clz	r3, r1
 8000406:	bf08      	it	eq
 8000408:	3320      	addeq	r3, #32
 800040a:	f1a3 030b 	sub.w	r3, r3, #11
 800040e:	f1b3 0220 	subs.w	r2, r3, #32
 8000412:	da0c      	bge.n	800042e <__adddf3+0x16e>
 8000414:	320c      	adds	r2, #12
 8000416:	dd08      	ble.n	800042a <__adddf3+0x16a>
 8000418:	f102 0c14 	add.w	ip, r2, #20
 800041c:	f1c2 020c 	rsb	r2, r2, #12
 8000420:	fa01 f00c 	lsl.w	r0, r1, ip
 8000424:	fa21 f102 	lsr.w	r1, r1, r2
 8000428:	e00c      	b.n	8000444 <__adddf3+0x184>
 800042a:	f102 0214 	add.w	r2, r2, #20
 800042e:	bfd8      	it	le
 8000430:	f1c2 0c20 	rsble	ip, r2, #32
 8000434:	fa01 f102 	lsl.w	r1, r1, r2
 8000438:	fa20 fc0c 	lsr.w	ip, r0, ip
 800043c:	bfdc      	itt	le
 800043e:	ea41 010c 	orrle.w	r1, r1, ip
 8000442:	4090      	lslle	r0, r2
 8000444:	1ae4      	subs	r4, r4, r3
 8000446:	bfa2      	ittt	ge
 8000448:	eb01 5104 	addge.w	r1, r1, r4, lsl #20
 800044c:	4329      	orrge	r1, r5
 800044e:	bd30      	popge	{r4, r5, pc}
 8000450:	ea6f 0404 	mvn.w	r4, r4
 8000454:	3c1f      	subs	r4, #31
 8000456:	da1c      	bge.n	8000492 <__adddf3+0x1d2>
 8000458:	340c      	adds	r4, #12
 800045a:	dc0e      	bgt.n	800047a <__adddf3+0x1ba>
 800045c:	f104 0414 	add.w	r4, r4, #20
 8000460:	f1c4 0220 	rsb	r2, r4, #32
 8000464:	fa20 f004 	lsr.w	r0, r0, r4
 8000468:	fa01 f302 	lsl.w	r3, r1, r2
 800046c:	ea40 0003 	orr.w	r0, r0, r3
 8000470:	fa21 f304 	lsr.w	r3, r1, r4
 8000474:	ea45 0103 	orr.w	r1, r5, r3
 8000478:	bd30      	pop	{r4, r5, pc}
 800047a:	f1c4 040c 	rsb	r4, r4, #12
 800047e:	f1c4 0220 	rsb	r2, r4, #32
 8000482:	fa20 f002 	lsr.w	r0, r0, r2
 8000486:	fa01 f304 	lsl.w	r3, r1, r4
 800048a:	ea40 0003 	orr.w	r0, r0, r3
 800048e:	4629      	mov	r1, r5
 8000490:	bd30      	pop	{r4, r5, pc}
 8000492:	fa21 f004 	lsr.w	r0, r1, r4
 8000496:	4629      	mov	r1, r5
 8000498:	bd30      	pop	{r4, r5, pc}
 800049a:	f094 0f00 	teq	r4, #0
 800049e:	f483 1380 	eor.w	r3, r3, #1048576	; 0x100000
 80004a2:	bf06      	itte	eq
 80004a4:	f481 1180 	eoreq.w	r1, r1, #1048576	; 0x100000
 80004a8:	3401      	addeq	r4, #1
 80004aa:	3d01      	subne	r5, #1
 80004ac:	e74e      	b.n	800034c <__adddf3+0x8c>
 80004ae:	ea7f 5c64 	mvns.w	ip, r4, asr #21
 80004b2:	bf18      	it	ne
 80004b4:	ea7f 5c65 	mvnsne.w	ip, r5, asr #21
 80004b8:	d029      	beq.n	800050e <__adddf3+0x24e>
 80004ba:	ea94 0f05 	teq	r4, r5
 80004be:	bf08      	it	eq
 80004c0:	ea90 0f02 	teqeq	r0, r2
 80004c4:	d005      	beq.n	80004d2 <__adddf3+0x212>
 80004c6:	ea54 0c00 	orrs.w	ip, r4, r0
 80004ca:	bf04      	itt	eq
 80004cc:	4619      	moveq	r1, r3
 80004ce:	4610      	moveq	r0, r2
 80004d0:	bd30      	pop	{r4, r5, pc}
 80004d2:	ea91 0f03 	teq	r1, r3
 80004d6:	bf1e      	ittt	ne
 80004d8:	2100      	movne	r1, #0
 80004da:	2000      	movne	r0, #0
 80004dc:	bd30      	popne	{r4, r5, pc}
 80004de:	ea5f 5c54 	movs.w	ip, r4, lsr #21
 80004e2:	d105      	bne.n	80004f0 <__adddf3+0x230>
 80004e4:	0040      	lsls	r0, r0, #1
 80004e6:	4149      	adcs	r1, r1
 80004e8:	bf28      	it	cs
 80004ea:	f041 4100 	orrcs.w	r1, r1, #2147483648	; 0x80000000
 80004ee:	bd30      	pop	{r4, r5, pc}
 80004f0:	f514 0480 	adds.w	r4, r4, #4194304	; 0x400000
 80004f4:	bf3c      	itt	cc
 80004f6:	f501 1180 	addcc.w	r1, r1, #1048576	; 0x100000
 80004fa:	bd30      	popcc	{r4, r5, pc}
 80004fc:	f001 4500 	and.w	r5, r1, #2147483648	; 0x80000000
 8000500:	f045 41fe 	orr.w	r1, r5, #2130706432	; 0x7f000000
 8000504:	f441 0170 	orr.w	r1, r1, #15728640	; 0xf00000
 8000508:	f04f 0000 	mov.w	r0, #0
 800050c:	bd30      	pop	{r4, r5, pc}
 800050e:	ea7f 5c64 	mvns.w	ip, r4, asr #21
 8000512:	bf1a      	itte	ne
 8000514:	4619      	movne	r1, r3
 8000516:	4610      	movne	r0, r2
 8000518:	ea7f 5c65 	mvnseq.w	ip, r5, asr #21
 800051c:	bf1c      	itt	ne
 800051e:	460b      	movne	r3, r1
 8000520:	4602      	movne	r2, r0
 8000522:	ea50 3401 	orrs.w	r4, r0, r1, lsl #12
 8000526:	bf06      	itte	eq
 8000528:	ea52 3503 	orrseq.w	r5, r2, r3, lsl #12
 800052c:	ea91 0f03 	teqeq	r1, r3
 8000530:	f441 2100 	orrne.w	r1, r1, #524288	; 0x80000
 8000534:	bd30      	pop	{r4, r5, pc}
 8000536:	bf00      	nop

08000538 <__aeabi_ui2d>:
 8000538:	f090 0f00 	teq	r0, #0
 800053c:	bf04      	itt	eq
 800053e:	2100      	moveq	r1, #0
 8000540:	4770      	bxeq	lr
 8000542:	b530      	push	{r4, r5, lr}
 8000544:	f44f 6480 	mov.w	r4, #1024	; 0x400
 8000548:	f104 0432 	add.w	r4, r4, #50	; 0x32
 800054c:	f04f 0500 	mov.w	r5, #0
 8000550:	f04f 0100 	mov.w	r1, #0
 8000554:	e750      	b.n	80003f8 <__adddf3+0x138>
 8000556:	bf00      	nop

08000558 <__aeabi_i2d>:
 8000558:	f090 0f00 	teq	r0, #0
 800055c:	bf04      	itt	eq
 800055e:	2100      	moveq	r1, #0
 8000560:	4770      	bxeq	lr
 8000562:	b530      	push	{r4, r5, lr}
 8000564:	f44f 6480 	mov.w	r4, #1024	; 0x400
 8000568:	f104 0432 	add.w	r4, r4, #50	; 0x32
 800056c:	f010 4500 	ands.w	r5, r0, #2147483648	; 0x80000000
 8000570:	bf48      	it	mi
 8000572:	4240      	negmi	r0, r0
 8000574:	f04f 0100 	mov.w	r1, #0
 8000578:	e73e      	b.n	80003f8 <__adddf3+0x138>
 800057a:	bf00      	nop

0800057c <__aeabi_f2d>:
 800057c:	0042      	lsls	r2, r0, #1
 800057e:	ea4f 01e2 	mov.w	r1, r2, asr #3
 8000582:	ea4f 0131 	mov.w	r1, r1, rrx
 8000586:	ea4f 7002 	mov.w	r0, r2, lsl #28
 800058a:	bf1f      	itttt	ne
 800058c:	f012 437f 	andsne.w	r3, r2, #4278190080	; 0xff000000
 8000590:	f093 4f7f 	teqne	r3, #4278190080	; 0xff000000
 8000594:	f081 5160 	eorne.w	r1, r1, #939524096	; 0x38000000
 8000598:	4770      	bxne	lr
 800059a:	f032 427f 	bics.w	r2, r2, #4278190080	; 0xff000000
 800059e:	bf08      	it	eq
 80005a0:	4770      	bxeq	lr
 80005a2:	f093 4f7f 	teq	r3, #4278190080	; 0xff000000
 80005a6:	bf04      	itt	eq
 80005a8:	f441 2100 	orreq.w	r1, r1, #524288	; 0x80000
 80005ac:	4770      	bxeq	lr
 80005ae:	b530      	push	{r4, r5, lr}
 80005b0:	f44f 7460 	mov.w	r4, #896	; 0x380
 80005b4:	f001 4500 	and.w	r5, r1, #2147483648	; 0x80000000
 80005b8:	f021 4100 	bic.w	r1, r1, #2147483648	; 0x80000000
 80005bc:	e71c      	b.n	80003f8 <__adddf3+0x138>
 80005be:	bf00      	nop

080005c0 <__aeabi_ul2d>:
 80005c0:	ea50 0201 	orrs.w	r2, r0, r1
 80005c4:	bf08      	it	eq
 80005c6:	4770      	bxeq	lr
 80005c8:	b530      	push	{r4, r5, lr}
 80005ca:	f04f 0500 	mov.w	r5, #0
 80005ce:	e00a      	b.n	80005e6 <__aeabi_l2d+0x16>

080005d0 <__aeabi_l2d>:
 80005d0:	ea50 0201 	orrs.w	r2, r0, r1
 80005d4:	bf08      	it	eq
 80005d6:	4770      	bxeq	lr
 80005d8:	b530      	push	{r4, r5, lr}
 80005da:	f011 4500 	ands.w	r5, r1, #2147483648	; 0x80000000
 80005de:	d502      	bpl.n	80005e6 <__aeabi_l2d+0x16>
 80005e0:	4240      	negs	r0, r0
 80005e2:	eb61 0141 	sbc.w	r1, r1, r1, lsl #1
 80005e6:	f44f 6480 	mov.w	r4, #1024	; 0x400
 80005ea:	f104 0432 	add.w	r4, r4, #50	; 0x32
 80005ee:	ea5f 5c91 	movs.w	ip, r1, lsr #22
 80005f2:	f43f aed8 	beq.w	80003a6 <__adddf3+0xe6>
 80005f6:	f04f 0203 	mov.w	r2, #3
 80005fa:	ea5f 0cdc 	movs.w	ip, ip, lsr #3
 80005fe:	bf18      	it	ne
 8000600:	3203      	addne	r2, #3
 8000602:	ea5f 0cdc 	movs.w	ip, ip, lsr #3
 8000606:	bf18      	it	ne
 8000608:	3203      	addne	r2, #3
 800060a:	eb02 02dc 	add.w	r2, r2, ip, lsr #3
 800060e:	f1c2 0320 	rsb	r3, r2, #32
 8000612:	fa00 fc03 	lsl.w	ip, r0, r3
 8000616:	fa20 f002 	lsr.w	r0, r0, r2
 800061a:	fa01 fe03 	lsl.w	lr, r1, r3
 800061e:	ea40 000e 	orr.w	r0, r0, lr
 8000622:	fa21 f102 	lsr.w	r1, r1, r2
 8000626:	4414      	add	r4, r2
 8000628:	e6bd      	b.n	80003a6 <__adddf3+0xe6>
 800062a:	bf00      	nop

0800062c <__aeabi_d2uiz>:
 800062c:	004a      	lsls	r2, r1, #1
 800062e:	d211      	bcs.n	8000654 <__aeabi_d2uiz+0x28>
 8000630:	f512 1200 	adds.w	r2, r2, #2097152	; 0x200000
 8000634:	d211      	bcs.n	800065a <__aeabi_d2uiz+0x2e>
 8000636:	d50d      	bpl.n	8000654 <__aeabi_d2uiz+0x28>
 8000638:	f46f 7378 	mvn.w	r3, #992	; 0x3e0
 800063c:	ebb3 5262 	subs.w	r2, r3, r2, asr #21
 8000640:	d40e      	bmi.n	8000660 <__aeabi_d2uiz+0x34>
 8000642:	ea4f 23c1 	mov.w	r3, r1, lsl #11
 8000646:	f043 4300 	orr.w	r3, r3, #2147483648	; 0x80000000
 800064a:	ea43 5350 	orr.w	r3, r3, r0, lsr #21
 800064e:	fa23 f002 	lsr.w	r0, r3, r2
 8000652:	4770      	bx	lr
 8000654:	f04f 0000 	mov.w	r0, #0
 8000658:	4770      	bx	lr
 800065a:	ea50 3001 	orrs.w	r0, r0, r1, lsl #12
 800065e:	d102      	bne.n	8000666 <__aeabi_d2uiz+0x3a>
 8000660:	f04f 30ff 	mov.w	r0, #4294967295	; 0xffffffff
 8000664:	4770      	bx	lr
 8000666:	f04f 0000 	mov.w	r0, #0
 800066a:	4770      	bx	lr

0800066c <__aeabi_frsub>:
 800066c:	f080 4000 	eor.w	r0, r0, #2147483648	; 0x80000000
 8000670:	e002      	b.n	8000678 <__addsf3>
 8000672:	bf00      	nop

08000674 <__aeabi_fsub>:
 8000674:	f081 4100 	eor.w	r1, r1, #2147483648	; 0x80000000

08000678 <__addsf3>:
 8000678:	0042      	lsls	r2, r0, #1
 800067a:	bf1f      	itttt	ne
 800067c:	ea5f 0341 	movsne.w	r3, r1, lsl #1
 8000680:	ea92 0f03 	teqne	r2, r3
 8000684:	ea7f 6c22 	mvnsne.w	ip, r2, asr #24
 8000688:	ea7f 6c23 	mvnsne.w	ip, r3, asr #24
 800068c:	d06a      	beq.n	8000764 <__addsf3+0xec>
 800068e:	ea4f 6212 	mov.w	r2, r2, lsr #24
 8000692:	ebd2 6313 	rsbs	r3, r2, r3, lsr #24
 8000696:	bfc1      	itttt	gt
 8000698:	18d2      	addgt	r2, r2, r3
 800069a:	4041      	eorgt	r1, r0
 800069c:	4048      	eorgt	r0, r1
 800069e:	4041      	eorgt	r1, r0
 80006a0:	bfb8      	it	lt
 80006a2:	425b      	neglt	r3, r3
 80006a4:	2b19      	cmp	r3, #25
 80006a6:	bf88      	it	hi
 80006a8:	4770      	bxhi	lr
 80006aa:	f010 4f00 	tst.w	r0, #2147483648	; 0x80000000
 80006ae:	f440 0000 	orr.w	r0, r0, #8388608	; 0x800000
 80006b2:	f020 407f 	bic.w	r0, r0, #4278190080	; 0xff000000
 80006b6:	bf18      	it	ne
 80006b8:	4240      	negne	r0, r0
 80006ba:	f011 4f00 	tst.w	r1, #2147483648	; 0x80000000
 80006be:	f441 0100 	orr.w	r1, r1, #8388608	; 0x800000
 80006c2:	f021 417f 	bic.w	r1, r1, #4278190080	; 0xff000000
 80006c6:	bf18      	it	ne
 80006c8:	4249      	negne	r1, r1
 80006ca:	ea92 0f03 	teq	r2, r3
 80006ce:	d03f      	beq.n	8000750 <__addsf3+0xd8>
 80006d0:	f1a2 0201 	sub.w	r2, r2, #1
 80006d4:	fa41 fc03 	asr.w	ip, r1, r3
 80006d8:	eb10 000c 	adds.w	r0, r0, ip
 80006dc:	f1c3 0320 	rsb	r3, r3, #32
 80006e0:	fa01 f103 	lsl.w	r1, r1, r3
 80006e4:	f000 4300 	and.w	r3, r0, #2147483648	; 0x80000000
 80006e8:	d502      	bpl.n	80006f0 <__addsf3+0x78>
 80006ea:	4249      	negs	r1, r1
 80006ec:	eb60 0040 	sbc.w	r0, r0, r0, lsl #1
 80006f0:	f5b0 0f00 	cmp.w	r0, #8388608	; 0x800000
 80006f4:	d313      	bcc.n	800071e <__addsf3+0xa6>
 80006f6:	f1b0 7f80 	cmp.w	r0, #16777216	; 0x1000000
 80006fa:	d306      	bcc.n	800070a <__addsf3+0x92>
 80006fc:	0840      	lsrs	r0, r0, #1
 80006fe:	ea4f 0131 	mov.w	r1, r1, rrx
 8000702:	f102 0201 	add.w	r2, r2, #1
 8000706:	2afe      	cmp	r2, #254	; 0xfe
 8000708:	d251      	bcs.n	80007ae <__addsf3+0x136>
 800070a:	f1b1 4f00 	cmp.w	r1, #2147483648	; 0x80000000
 800070e:	eb40 50c2 	adc.w	r0, r0, r2, lsl #23
 8000712:	bf08      	it	eq
 8000714:	f020 0001 	biceq.w	r0, r0, #1
 8000718:	ea40 0003 	orr.w	r0, r0, r3
 800071c:	4770      	bx	lr
 800071e:	0049      	lsls	r1, r1, #1
 8000720:	eb40 0000 	adc.w	r0, r0, r0
 8000724:	3a01      	subs	r2, #1
 8000726:	bf28      	it	cs
 8000728:	f5b0 0f00 	cmpcs.w	r0, #8388608	; 0x800000
 800072c:	d2ed      	bcs.n	800070a <__addsf3+0x92>
 800072e:	fab0 fc80 	clz	ip, r0
 8000732:	f1ac 0c08 	sub.w	ip, ip, #8
 8000736:	ebb2 020c 	subs.w	r2, r2, ip
 800073a:	fa00 f00c 	lsl.w	r0, r0, ip
 800073e:	bfaa      	itet	ge
 8000740:	eb00 50c2 	addge.w	r0, r0, r2, lsl #23
 8000744:	4252      	neglt	r2, r2
 8000746:	4318      	orrge	r0, r3
 8000748:	bfbc      	itt	lt
 800074a:	40d0      	lsrlt	r0, r2
 800074c:	4318      	orrlt	r0, r3
 800074e:	4770      	bx	lr
 8000750:	f092 0f00 	teq	r2, #0
 8000754:	f481 0100 	eor.w	r1, r1, #8388608	; 0x800000
 8000758:	bf06      	itte	eq
 800075a:	f480 0000 	eoreq.w	r0, r0, #8388608	; 0x800000
 800075e:	3201      	addeq	r2, #1
 8000760:	3b01      	subne	r3, #1
 8000762:	e7b5      	b.n	80006d0 <__addsf3+0x58>
 8000764:	ea4f 0341 	mov.w	r3, r1, lsl #1
 8000768:	ea7f 6c22 	mvns.w	ip, r2, asr #24
 800076c:	bf18      	it	ne
 800076e:	ea7f 6c23 	mvnsne.w	ip, r3, asr #24
 8000772:	d021      	beq.n	80007b8 <__addsf3+0x140>
 8000774:	ea92 0f03 	teq	r2, r3
 8000778:	d004      	beq.n	8000784 <__addsf3+0x10c>
 800077a:	f092 0f00 	teq	r2, #0
 800077e:	bf08      	it	eq
 8000780:	4608      	moveq	r0, r1
 8000782:	4770      	bx	lr
 8000784:	ea90 0f01 	teq	r0, r1
 8000788:	bf1c      	itt	ne
 800078a:	2000      	movne	r0, #0
 800078c:	4770      	bxne	lr
 800078e:	f012 4f7f 	tst.w	r2, #4278190080	; 0xff000000
 8000792:	d104      	bne.n	800079e <__addsf3+0x126>
 8000794:	0040      	lsls	r0, r0, #1
 8000796:	bf28      	it	cs
 8000798:	f040 4000 	orrcs.w	r0, r0, #2147483648	; 0x80000000
 800079c:	4770      	bx	lr
 800079e:	f112 7200 	adds.w	r2, r2, #33554432	; 0x2000000
 80007a2:	bf3c      	itt	cc
 80007a4:	f500 0000 	addcc.w	r0, r0, #8388608	; 0x800000
 80007a8:	4770      	bxcc	lr
 80007aa:	f000 4300 	and.w	r3, r0, #2147483648	; 0x80000000
 80007ae:	f043 40fe 	orr.w	r0, r3, #2130706432	; 0x7f000000
 80007b2:	f440 0000 	orr.w	r0, r0, #8388608	; 0x800000
 80007b6:	4770      	bx	lr
 80007b8:	ea7f 6222 	mvns.w	r2, r2, asr #24
 80007bc:	bf16      	itet	ne
 80007be:	4608      	movne	r0, r1
 80007c0:	ea7f 6323 	mvnseq.w	r3, r3, asr #24
 80007c4:	4601      	movne	r1, r0
 80007c6:	0242      	lsls	r2, r0, #9
 80007c8:	bf06      	itte	eq
 80007ca:	ea5f 2341 	movseq.w	r3, r1, lsl #9
 80007ce:	ea90 0f01 	teqeq	r0, r1
 80007d2:	f440 0080 	orrne.w	r0, r0, #4194304	; 0x400000
 80007d6:	4770      	bx	lr

080007d8 <__aeabi_ui2f>:
 80007d8:	f04f 0300 	mov.w	r3, #0
 80007dc:	e004      	b.n	80007e8 <__aeabi_i2f+0x8>
 80007de:	bf00      	nop

080007e0 <__aeabi_i2f>:
 80007e0:	f010 4300 	ands.w	r3, r0, #2147483648	; 0x80000000
 80007e4:	bf48      	it	mi
 80007e6:	4240      	negmi	r0, r0
 80007e8:	ea5f 0c00 	movs.w	ip, r0
 80007ec:	bf08      	it	eq
 80007ee:	4770      	bxeq	lr
 80007f0:	f043 4396 	orr.w	r3, r3, #1258291200	; 0x4b000000
 80007f4:	4601      	mov	r1, r0
 80007f6:	f04f 0000 	mov.w	r0, #0
 80007fa:	e01c      	b.n	8000836 <__aeabi_l2f+0x2a>

080007fc <__aeabi_ul2f>:
 80007fc:	ea50 0201 	orrs.w	r2, r0, r1
 8000800:	bf08      	it	eq
 8000802:	4770      	bxeq	lr
 8000804:	f04f 0300 	mov.w	r3, #0
 8000808:	e00a      	b.n	8000820 <__aeabi_l2f+0x14>
 800080a:	bf00      	nop

0800080c <__aeabi_l2f>:
 800080c:	ea50 0201 	orrs.w	r2, r0, r1
 8000810:	bf08      	it	eq
 8000812:	4770      	bxeq	lr
 8000814:	f011 4300 	ands.w	r3, r1, #2147483648	; 0x80000000
 8000818:	d502      	bpl.n	8000820 <__aeabi_l2f+0x14>
 800081a:	4240      	negs	r0, r0
 800081c:	eb61 0141 	sbc.w	r1, r1, r1, lsl #1
 8000820:	ea5f 0c01 	movs.w	ip, r1
 8000824:	bf02      	ittt	eq
 8000826:	4684      	moveq	ip, r0
 8000828:	4601      	moveq	r1, r0
 800082a:	2000      	moveq	r0, #0
 800082c:	f043 43b6 	orr.w	r3, r3, #1526726656	; 0x5b000000
 8000830:	bf08      	it	eq
 8000832:	f1a3 5380 	subeq.w	r3, r3, #268435456	; 0x10000000
 8000836:	f5a3 0300 	sub.w	r3, r3, #8388608	; 0x800000
 800083a:	fabc f28c 	clz	r2, ip
 800083e:	3a08      	subs	r2, #8
 8000840:	eba3 53c2 	sub.w	r3, r3, r2, lsl #23
 8000844:	db10      	blt.n	8000868 <__aeabi_l2f+0x5c>
 8000846:	fa01 fc02 	lsl.w	ip, r1, r2
 800084a:	4463      	add	r3, ip
 800084c:	fa00 fc02 	lsl.w	ip, r0, r2
 8000850:	f1c2 0220 	rsb	r2, r2, #32
 8000854:	f1bc 4f00 	cmp.w	ip, #2147483648	; 0x80000000
 8000858:	fa20 f202 	lsr.w	r2, r0, r2
 800085c:	eb43 0002 	adc.w	r0, r3, r2
 8000860:	bf08      	it	eq
 8000862:	f020 0001 	biceq.w	r0, r0, #1
 8000866:	4770      	bx	lr
 8000868:	f102 0220 	add.w	r2, r2, #32
 800086c:	fa01 fc02 	lsl.w	ip, r1, r2
 8000870:	f1c2 0220 	rsb	r2, r2, #32
 8000874:	ea50 004c 	orrs.w	r0, r0, ip, lsl #1
 8000878:	fa21 f202 	lsr.w	r2, r1, r2
 800087c:	eb43 0002 	adc.w	r0, r3, r2
 8000880:	bf08      	it	eq
 8000882:	ea20 70dc 	biceq.w	r0, r0, ip, lsr #31
 8000886:	4770      	bx	lr

08000888 <__NVIC_GetPriorityGrouping>:
  \brief   Get Priority Grouping
  \details Reads the priority grouping field from the NVIC Interrupt Controller.
  \return                Priority grouping field (SCB->AIRCR [10:8] PRIGROUP field).
 */
__STATIC_INLINE uint32_t __NVIC_GetPriorityGrouping(void)
{
 8000888:	b480      	push	{r7}
 800088a:	af00      	add	r7, sp, #0
  return ((uint32_t)((SCB->AIRCR & SCB_AIRCR_PRIGROUP_Msk) >> SCB_AIRCR_PRIGROUP_Pos));
 800088c:	4b04      	ldr	r3, [pc, #16]	; (80008a0 <__NVIC_GetPriorityGrouping+0x18>)
 800088e:	68db      	ldr	r3, [r3, #12]
 8000890:	0a1b      	lsrs	r3, r3, #8
 8000892:	f003 0307 	and.w	r3, r3, #7
}
 8000896:	4618      	mov	r0, r3
 8000898:	46bd      	mov	sp, r7
 800089a:	bc80      	pop	{r7}
 800089c:	4770      	bx	lr
 800089e:	bf00      	nop
 80008a0:	e000ed00 	.word	0xe000ed00

080008a4 <__NVIC_EnableIRQ>:
  \details Enables a device specific interrupt in the NVIC interrupt controller.
  \param [in]      IRQn  Device specific interrupt number.
  \note    IRQn must not be negative.
 */
__STATIC_INLINE void __NVIC_EnableIRQ(IRQn_Type IRQn)
{
 80008a4:	b480      	push	{r7}
 80008a6:	b083      	sub	sp, #12
 80008a8:	af00      	add	r7, sp, #0
 80008aa:	4603      	mov	r3, r0
 80008ac:	71fb      	strb	r3, [r7, #7]
  if ((int32_t)(IRQn) >= 0)
 80008ae:	f997 3007 	ldrsb.w	r3, [r7, #7]
 80008b2:	2b00      	cmp	r3, #0
 80008b4:	db0b      	blt.n	80008ce <__NVIC_EnableIRQ+0x2a>
  {
    NVIC->ISER[(((uint32_t)IRQn) >> 5UL)] = (uint32_t)(1UL << (((uint32_t)IRQn) & 0x1FUL));
 80008b6:	79fb      	ldrb	r3, [r7, #7]
 80008b8:	f003 021f 	and.w	r2, r3, #31
 80008bc:	4906      	ldr	r1, [pc, #24]	; (80008d8 <__NVIC_EnableIRQ+0x34>)
 80008be:	f997 3007 	ldrsb.w	r3, [r7, #7]
 80008c2:	095b      	lsrs	r3, r3, #5
 80008c4:	2001      	movs	r0, #1
 80008c6:	fa00 f202 	lsl.w	r2, r0, r2
 80008ca:	f841 2023 	str.w	r2, [r1, r3, lsl #2]
  }
}
 80008ce:	bf00      	nop
 80008d0:	370c      	adds	r7, #12
 80008d2:	46bd      	mov	sp, r7
 80008d4:	bc80      	pop	{r7}
 80008d6:	4770      	bx	lr
 80008d8:	e000e100 	.word	0xe000e100

080008dc <__NVIC_SetPriority>:
  \param [in]      IRQn  Interrupt number.
  \param [in]  priority  Priority to set.
  \note    The priority cannot be set for every processor exception.
 */
__STATIC_INLINE void __NVIC_SetPriority(IRQn_Type IRQn, uint32_t priority)
{
 80008dc:	b480      	push	{r7}
 80008de:	b083      	sub	sp, #12
 80008e0:	af00      	add	r7, sp, #0
 80008e2:	4603      	mov	r3, r0
 80008e4:	6039      	str	r1, [r7, #0]
 80008e6:	71fb      	strb	r3, [r7, #7]
  if ((int32_t)(IRQn) >= 0)
 80008e8:	f997 3007 	ldrsb.w	r3, [r7, #7]
 80008ec:	2b00      	cmp	r3, #0
 80008ee:	db0a      	blt.n	8000906 <__NVIC_SetPriority+0x2a>
  {
    NVIC->IP[((uint32_t)IRQn)]               = (uint8_t)((priority << (8U - __NVIC_PRIO_BITS)) & (uint32_t)0xFFUL);
 80008f0:	683b      	ldr	r3, [r7, #0]
 80008f2:	b2da      	uxtb	r2, r3
 80008f4:	490c      	ldr	r1, [pc, #48]	; (8000928 <__NVIC_SetPriority+0x4c>)
 80008f6:	f997 3007 	ldrsb.w	r3, [r7, #7]
 80008fa:	0112      	lsls	r2, r2, #4
 80008fc:	b2d2      	uxtb	r2, r2
 80008fe:	440b      	add	r3, r1
 8000900:	f883 2300 	strb.w	r2, [r3, #768]	; 0x300
  }
  else
  {
    SCB->SHP[(((uint32_t)IRQn) & 0xFUL)-4UL] = (uint8_t)((priority << (8U - __NVIC_PRIO_BITS)) & (uint32_t)0xFFUL);
  }
}
 8000904:	e00a      	b.n	800091c <__NVIC_SetPriority+0x40>
    SCB->SHP[(((uint32_t)IRQn) & 0xFUL)-4UL] = (uint8_t)((priority << (8U - __NVIC_PRIO_BITS)) & (uint32_t)0xFFUL);
 8000906:	683b      	ldr	r3, [r7, #0]
 8000908:	b2da      	uxtb	r2, r3
 800090a:	4908      	ldr	r1, [pc, #32]	; (800092c <__NVIC_SetPriority+0x50>)
 800090c:	79fb      	ldrb	r3, [r7, #7]
 800090e:	f003 030f 	and.w	r3, r3, #15
 8000912:	3b04      	subs	r3, #4
 8000914:	0112      	lsls	r2, r2, #4
 8000916:	b2d2      	uxtb	r2, r2
 8000918:	440b      	add	r3, r1
 800091a:	761a      	strb	r2, [r3, #24]
}
 800091c:	bf00      	nop
 800091e:	370c      	adds	r7, #12
 8000920:	46bd      	mov	sp, r7
 8000922:	bc80      	pop	{r7}
 8000924:	4770      	bx	lr
 8000926:	bf00      	nop
 8000928:	e000e100 	.word	0xe000e100
 800092c:	e000ed00 	.word	0xe000ed00

08000930 <NVIC_EncodePriority>:
  \param [in]   PreemptPriority  Preemptive priority value (starting from 0).
  \param [in]       SubPriority  Subpriority value (starting from 0).
  \return                        Encoded priority. Value can be used in the function \ref NVIC_SetPriority().
 */
__STATIC_INLINE uint32_t NVIC_EncodePriority (uint32_t PriorityGroup, uint32_t PreemptPriority, uint32_t SubPriority)
{
 8000930:	b480      	push	{r7}
 8000932:	b089      	sub	sp, #36	; 0x24
 8000934:	af00      	add	r7, sp, #0
 8000936:	60f8      	str	r0, [r7, #12]
 8000938:	60b9      	str	r1, [r7, #8]
 800093a:	607a      	str	r2, [r7, #4]
  uint32_t PriorityGroupTmp = (PriorityGroup & (uint32_t)0x07UL);   /* only values 0..7 are used          */
 800093c:	68fb      	ldr	r3, [r7, #12]
 800093e:	f003 0307 	and.w	r3, r3, #7
 8000942:	61fb      	str	r3, [r7, #28]
  uint32_t PreemptPriorityBits;
  uint32_t SubPriorityBits;

  PreemptPriorityBits = ((7UL - PriorityGroupTmp) > (uint32_t)(__NVIC_PRIO_BITS)) ? (uint32_t)(__NVIC_PRIO_BITS) : (uint32_t)(7UL - PriorityGroupTmp);
 8000944:	69fb      	ldr	r3, [r7, #28]
 8000946:	f1c3 0307 	rsb	r3, r3, #7
 800094a:	2b04      	cmp	r3, #4
 800094c:	bf28      	it	cs
 800094e:	2304      	movcs	r3, #4
 8000950:	61bb      	str	r3, [r7, #24]
  SubPriorityBits     = ((PriorityGroupTmp + (uint32_t)(__NVIC_PRIO_BITS)) < (uint32_t)7UL) ? (uint32_t)0UL : (uint32_t)((PriorityGroupTmp - 7UL) + (uint32_t)(__NVIC_PRIO_BITS));
 8000952:	69fb      	ldr	r3, [r7, #28]
 8000954:	3304      	adds	r3, #4
 8000956:	2b06      	cmp	r3, #6
 8000958:	d902      	bls.n	8000960 <NVIC_EncodePriority+0x30>
 800095a:	69fb      	ldr	r3, [r7, #28]
 800095c:	3b03      	subs	r3, #3
 800095e:	e000      	b.n	8000962 <NVIC_EncodePriority+0x32>
 8000960:	2300      	movs	r3, #0
 8000962:	617b      	str	r3, [r7, #20]

  return (
           ((PreemptPriority & (uint32_t)((1UL << (PreemptPriorityBits)) - 1UL)) << SubPriorityBits) |
 8000964:	f04f 32ff 	mov.w	r2, #4294967295	; 0xffffffff
 8000968:	69bb      	ldr	r3, [r7, #24]
 800096a:	fa02 f303 	lsl.w	r3, r2, r3
 800096e:	43da      	mvns	r2, r3
 8000970:	68bb      	ldr	r3, [r7, #8]
 8000972:	401a      	ands	r2, r3
 8000974:	697b      	ldr	r3, [r7, #20]
 8000976:	409a      	lsls	r2, r3
           ((SubPriority     & (uint32_t)((1UL << (SubPriorityBits    )) - 1UL)))
 8000978:	f04f 31ff 	mov.w	r1, #4294967295	; 0xffffffff
 800097c:	697b      	ldr	r3, [r7, #20]
 800097e:	fa01 f303 	lsl.w	r3, r1, r3
 8000982:	43d9      	mvns	r1, r3
 8000984:	687b      	ldr	r3, [r7, #4]
 8000986:	400b      	ands	r3, r1
           ((PreemptPriority & (uint32_t)((1UL << (PreemptPriorityBits)) - 1UL)) << SubPriorityBits) |
 8000988:	4313      	orrs	r3, r2
         );
}
 800098a:	4618      	mov	r0, r3
 800098c:	3724      	adds	r7, #36	; 0x24
 800098e:	46bd      	mov	sp, r7
 8000990:	bc80      	pop	{r7}
 8000992:	4770      	bx	lr

08000994 <LL_AHB1_GRP1_EnableClock>:
  *
  *         (*) value not defined in all devices.
  * @retval None
*/
__STATIC_INLINE void LL_AHB1_GRP1_EnableClock(uint32_t Periphs)
{
 8000994:	b480      	push	{r7}
 8000996:	b085      	sub	sp, #20
 8000998:	af00      	add	r7, sp, #0
 800099a:	6078      	str	r0, [r7, #4]
  __IO uint32_t tmpreg;
  SET_BIT(RCC->AHBENR, Periphs);
 800099c:	4b08      	ldr	r3, [pc, #32]	; (80009c0 <LL_AHB1_GRP1_EnableClock+0x2c>)
 800099e:	695a      	ldr	r2, [r3, #20]
 80009a0:	4907      	ldr	r1, [pc, #28]	; (80009c0 <LL_AHB1_GRP1_EnableClock+0x2c>)
 80009a2:	687b      	ldr	r3, [r7, #4]
 80009a4:	4313      	orrs	r3, r2
 80009a6:	614b      	str	r3, [r1, #20]
  /* Delay after an RCC peripheral clock enabling */
  tmpreg = READ_BIT(RCC->AHBENR, Periphs);
 80009a8:	4b05      	ldr	r3, [pc, #20]	; (80009c0 <LL_AHB1_GRP1_EnableClock+0x2c>)
 80009aa:	695a      	ldr	r2, [r3, #20]
 80009ac:	687b      	ldr	r3, [r7, #4]
 80009ae:	4013      	ands	r3, r2
 80009b0:	60fb      	str	r3, [r7, #12]
  (void)tmpreg;
 80009b2:	68fb      	ldr	r3, [r7, #12]
}
 80009b4:	bf00      	nop
 80009b6:	3714      	adds	r7, #20
 80009b8:	46bd      	mov	sp, r7
 80009ba:	bc80      	pop	{r7}
 80009bc:	4770      	bx	lr
 80009be:	bf00      	nop
 80009c0:	40021000 	.word	0x40021000

080009c4 <MX_DMA_Init>:

/**
  * Enable DMA controller clock
  */
void MX_DMA_Init(void)
{
 80009c4:	b580      	push	{r7, lr}
 80009c6:	af00      	add	r7, sp, #0

  /* Init with LL driver */
  /* DMA controller clock enable */
  LL_AHB1_GRP1_EnableClock(LL_AHB1_GRP1_PERIPH_DMA1);
 80009c8:	2001      	movs	r0, #1
 80009ca:	f7ff ffe3 	bl	8000994 <LL_AHB1_GRP1_EnableClock>

  /* DMA interrupt init */
  /* DMA1_Channel2_IRQn interrupt configuration */
  NVIC_SetPriority(DMA1_Channel2_IRQn, NVIC_EncodePriority(NVIC_GetPriorityGrouping(),0, 0));
 80009ce:	f7ff ff5b 	bl	8000888 <__NVIC_GetPriorityGrouping>
 80009d2:	4603      	mov	r3, r0
 80009d4:	2200      	movs	r2, #0
 80009d6:	2100      	movs	r1, #0
 80009d8:	4618      	mov	r0, r3
 80009da:	f7ff ffa9 	bl	8000930 <NVIC_EncodePriority>
 80009de:	4603      	mov	r3, r0
 80009e0:	4619      	mov	r1, r3
 80009e2:	200c      	movs	r0, #12
 80009e4:	f7ff ff7a 	bl	80008dc <__NVIC_SetPriority>
  NVIC_EnableIRQ(DMA1_Channel2_IRQn);
 80009e8:	200c      	movs	r0, #12
 80009ea:	f7ff ff5b 	bl	80008a4 <__NVIC_EnableIRQ>
  /* DMA1_Channel5_IRQn interrupt configuration */
  NVIC_SetPriority(DMA1_Channel5_IRQn, NVIC_EncodePriority(NVIC_GetPriorityGrouping(),0, 0));
 80009ee:	f7ff ff4b 	bl	8000888 <__NVIC_GetPriorityGrouping>
 80009f2:	4603      	mov	r3, r0
 80009f4:	2200      	movs	r2, #0
 80009f6:	2100      	movs	r1, #0
 80009f8:	4618      	mov	r0, r3
 80009fa:	f7ff ff99 	bl	8000930 <NVIC_EncodePriority>
 80009fe:	4603      	mov	r3, r0
 8000a00:	4619      	mov	r1, r3
 8000a02:	200f      	movs	r0, #15
 8000a04:	f7ff ff6a 	bl	80008dc <__NVIC_SetPriority>
  NVIC_EnableIRQ(DMA1_Channel5_IRQn);
 8000a08:	200f      	movs	r0, #15
 8000a0a:	f7ff ff4b 	bl	80008a4 <__NVIC_EnableIRQ>

}
 8000a0e:	bf00      	nop
 8000a10:	bd80      	pop	{r7, pc}
	...

08000a14 <LL_APB2_GRP1_EnableClock>:
  *
  *         (*) value not defined in all devices.
  * @retval None
*/
__STATIC_INLINE void LL_APB2_GRP1_EnableClock(uint32_t Periphs)
{
 8000a14:	b480      	push	{r7}
 8000a16:	b085      	sub	sp, #20
 8000a18:	af00      	add	r7, sp, #0
 8000a1a:	6078      	str	r0, [r7, #4]
  __IO uint32_t tmpreg;
  SET_BIT(RCC->APB2ENR, Periphs);
 8000a1c:	4b08      	ldr	r3, [pc, #32]	; (8000a40 <LL_APB2_GRP1_EnableClock+0x2c>)
 8000a1e:	699a      	ldr	r2, [r3, #24]
 8000a20:	4907      	ldr	r1, [pc, #28]	; (8000a40 <LL_APB2_GRP1_EnableClock+0x2c>)
 8000a22:	687b      	ldr	r3, [r7, #4]
 8000a24:	4313      	orrs	r3, r2
 8000a26:	618b      	str	r3, [r1, #24]
  /* Delay after an RCC peripheral clock enabling */
  tmpreg = READ_BIT(RCC->APB2ENR, Periphs);
 8000a28:	4b05      	ldr	r3, [pc, #20]	; (8000a40 <LL_APB2_GRP1_EnableClock+0x2c>)
 8000a2a:	699a      	ldr	r2, [r3, #24]
 8000a2c:	687b      	ldr	r3, [r7, #4]
 8000a2e:	4013      	ands	r3, r2
 8000a30:	60fb      	str	r3, [r7, #12]
  (void)tmpreg;
 8000a32:	68fb      	ldr	r3, [r7, #12]
}
 8000a34:	bf00      	nop
 8000a36:	3714      	adds	r7, #20
 8000a38:	46bd      	mov	sp, r7
 8000a3a:	bc80      	pop	{r7}
 8000a3c:	4770      	bx	lr
 8000a3e:	bf00      	nop
 8000a40:	40021000 	.word	0x40021000

08000a44 <MX_GPIO_Init>:
        * Output
        * EVENT_OUT
        * EXTI
*/
void MX_GPIO_Init(void)
{
 8000a44:	b580      	push	{r7, lr}
 8000a46:	af00      	add	r7, sp, #0

  /* GPIO Ports Clock Enable */
  LL_APB2_GRP1_EnableClock(LL_APB2_GRP1_PERIPH_GPIOD);
 8000a48:	2020      	movs	r0, #32
 8000a4a:	f7ff ffe3 	bl	8000a14 <LL_APB2_GRP1_EnableClock>
  LL_APB2_GRP1_EnableClock(LL_APB2_GRP1_PERIPH_GPIOB);
 8000a4e:	2008      	movs	r0, #8
 8000a50:	f7ff ffe0 	bl	8000a14 <LL_APB2_GRP1_EnableClock>
  LL_APB2_GRP1_EnableClock(LL_APB2_GRP1_PERIPH_GPIOA);
 8000a54:	2004      	movs	r0, #4
 8000a56:	f7ff ffdd 	bl	8000a14 <LL_APB2_GRP1_EnableClock>

}
 8000a5a:	bf00      	nop
 8000a5c:	bd80      	pop	{r7, pc}
	...

08000a60 <__NVIC_GetPriorityGrouping>:
{
 8000a60:	b480      	push	{r7}
 8000a62:	af00      	add	r7, sp, #0
  return ((uint32_t)((SCB->AIRCR & SCB_AIRCR_PRIGROUP_Msk) >> SCB_AIRCR_PRIGROUP_Pos));
 8000a64:	4b04      	ldr	r3, [pc, #16]	; (8000a78 <__NVIC_GetPriorityGrouping+0x18>)
 8000a66:	68db      	ldr	r3, [r3, #12]
 8000a68:	0a1b      	lsrs	r3, r3, #8
 8000a6a:	f003 0307 	and.w	r3, r3, #7
}
 8000a6e:	4618      	mov	r0, r3
 8000a70:	46bd      	mov	sp, r7
 8000a72:	bc80      	pop	{r7}
 8000a74:	4770      	bx	lr
 8000a76:	bf00      	nop
 8000a78:	e000ed00 	.word	0xe000ed00

08000a7c <__NVIC_EnableIRQ>:
{
 8000a7c:	b480      	push	{r7}
 8000a7e:	b083      	sub	sp, #12
 8000a80:	af00      	add	r7, sp, #0
 8000a82:	4603      	mov	r3, r0
 8000a84:	71fb      	strb	r3, [r7, #7]
  if ((int32_t)(IRQn) >= 0)
 8000a86:	f997 3007 	ldrsb.w	r3, [r7, #7]
 8000a8a:	2b00      	cmp	r3, #0
 8000a8c:	db0b      	blt.n	8000aa6 <__NVIC_EnableIRQ+0x2a>
    NVIC->ISER[(((uint32_t)IRQn) >> 5UL)] = (uint32_t)(1UL << (((uint32_t)IRQn) & 0x1FUL));
 8000a8e:	79fb      	ldrb	r3, [r7, #7]
 8000a90:	f003 021f 	and.w	r2, r3, #31
 8000a94:	4906      	ldr	r1, [pc, #24]	; (8000ab0 <__NVIC_EnableIRQ+0x34>)
 8000a96:	f997 3007 	ldrsb.w	r3, [r7, #7]
 8000a9a:	095b      	lsrs	r3, r3, #5
 8000a9c:	2001      	movs	r0, #1
 8000a9e:	fa00 f202 	lsl.w	r2, r0, r2
 8000aa2:	f841 2023 	str.w	r2, [r1, r3, lsl #2]
}
 8000aa6:	bf00      	nop
 8000aa8:	370c      	adds	r7, #12
 8000aaa:	46bd      	mov	sp, r7
 8000aac:	bc80      	pop	{r7}
 8000aae:	4770      	bx	lr
 8000ab0:	e000e100 	.word	0xe000e100

08000ab4 <__NVIC_SetPriority>:
{
 8000ab4:	b480      	push	{r7}
 8000ab6:	b083      	sub	sp, #12
 8000ab8:	af00      	add	r7, sp, #0
 8000aba:	4603      	mov	r3, r0
 8000abc:	6039      	str	r1, [r7, #0]
 8000abe:	71fb      	strb	r3, [r7, #7]
  if ((int32_t)(IRQn) >= 0)
 8000ac0:	f997 3007 	ldrsb.w	r3, [r7, #7]
 8000ac4:	2b00      	cmp	r3, #0
 8000ac6:	db0a      	blt.n	8000ade <__NVIC_SetPriority+0x2a>
    NVIC->IP[((uint32_t)IRQn)]               = (uint8_t)((priority << (8U - __NVIC_PRIO_BITS)) & (uint32_t)0xFFUL);
 8000ac8:	683b      	ldr	r3, [r7, #0]
 8000aca:	b2da      	uxtb	r2, r3
 8000acc:	490c      	ldr	r1, [pc, #48]	; (8000b00 <__NVIC_SetPriority+0x4c>)
 8000ace:	f997 3007 	ldrsb.w	r3, [r7, #7]
 8000ad2:	0112      	lsls	r2, r2, #4
 8000ad4:	b2d2      	uxtb	r2, r2
 8000ad6:	440b      	add	r3, r1
 8000ad8:	f883 2300 	strb.w	r2, [r3, #768]	; 0x300
}
 8000adc:	e00a      	b.n	8000af4 <__NVIC_SetPriority+0x40>
    SCB->SHP[(((uint32_t)IRQn) & 0xFUL)-4UL] = (uint8_t)((priority << (8U - __NVIC_PRIO_BITS)) & (uint32_t)0xFFUL);
 8000ade:	683b      	ldr	r3, [r7, #0]
 8000ae0:	b2da      	uxtb	r2, r3
 8000ae2:	4908      	ldr	r1, [pc, #32]	; (8000b04 <__NVIC_SetPriority+0x50>)
 8000ae4:	79fb      	ldrb	r3, [r7, #7]
 8000ae6:	f003 030f 	and.w	r3, r3, #15
 8000aea:	3b04      	subs	r3, #4
 8000aec:	0112      	lsls	r2, r2, #4
 8000aee:	b2d2      	uxtb	r2, r2
 8000af0:	440b      	add	r3, r1
 8000af2:	761a      	strb	r2, [r3, #24]
}
 8000af4:	bf00      	nop
 8000af6:	370c      	adds	r7, #12
 8000af8:	46bd      	mov	sp, r7
 8000afa:	bc80      	pop	{r7}
 8000afc:	4770      	bx	lr
 8000afe:	bf00      	nop
 8000b00:	e000e100 	.word	0xe000e100
 8000b04:	e000ed00 	.word	0xe000ed00

08000b08 <NVIC_EncodePriority>:
{
 8000b08:	b480      	push	{r7}
 8000b0a:	b089      	sub	sp, #36	; 0x24
 8000b0c:	af00      	add	r7, sp, #0
 8000b0e:	60f8      	str	r0, [r7, #12]
 8000b10:	60b9      	str	r1, [r7, #8]
 8000b12:	607a      	str	r2, [r7, #4]
  uint32_t PriorityGroupTmp = (PriorityGroup & (uint32_t)0x07UL);   /* only values 0..7 are used          */
 8000b14:	68fb      	ldr	r3, [r7, #12]
 8000b16:	f003 0307 	and.w	r3, r3, #7
 8000b1a:	61fb      	str	r3, [r7, #28]
  PreemptPriorityBits = ((7UL - PriorityGroupTmp) > (uint32_t)(__NVIC_PRIO_BITS)) ? (uint32_t)(__NVIC_PRIO_BITS) : (uint32_t)(7UL - PriorityGroupTmp);
 8000b1c:	69fb      	ldr	r3, [r7, #28]
 8000b1e:	f1c3 0307 	rsb	r3, r3, #7
 8000b22:	2b04      	cmp	r3, #4
 8000b24:	bf28      	it	cs
 8000b26:	2304      	movcs	r3, #4
 8000b28:	61bb      	str	r3, [r7, #24]
  SubPriorityBits     = ((PriorityGroupTmp + (uint32_t)(__NVIC_PRIO_BITS)) < (uint32_t)7UL) ? (uint32_t)0UL : (uint32_t)((PriorityGroupTmp - 7UL) + (uint32_t)(__NVIC_PRIO_BITS));
 8000b2a:	69fb      	ldr	r3, [r7, #28]
 8000b2c:	3304      	adds	r3, #4
 8000b2e:	2b06      	cmp	r3, #6
 8000b30:	d902      	bls.n	8000b38 <NVIC_EncodePriority+0x30>
 8000b32:	69fb      	ldr	r3, [r7, #28]
 8000b34:	3b03      	subs	r3, #3
 8000b36:	e000      	b.n	8000b3a <NVIC_EncodePriority+0x32>
 8000b38:	2300      	movs	r3, #0
 8000b3a:	617b      	str	r3, [r7, #20]
           ((PreemptPriority & (uint32_t)((1UL << (PreemptPriorityBits)) - 1UL)) << SubPriorityBits) |
 8000b3c:	f04f 32ff 	mov.w	r2, #4294967295	; 0xffffffff
 8000b40:	69bb      	ldr	r3, [r7, #24]
 8000b42:	fa02 f303 	lsl.w	r3, r2, r3
 8000b46:	43da      	mvns	r2, r3
 8000b48:	68bb      	ldr	r3, [r7, #8]
 8000b4a:	401a      	ands	r2, r3
 8000b4c:	697b      	ldr	r3, [r7, #20]
 8000b4e:	409a      	lsls	r2, r3
           ((SubPriority     & (uint32_t)((1UL << (SubPriorityBits    )) - 1UL)))
 8000b50:	f04f 31ff 	mov.w	r1, #4294967295	; 0xffffffff
 8000b54:	697b      	ldr	r3, [r7, #20]
 8000b56:	fa01 f303 	lsl.w	r3, r1, r3
 8000b5a:	43d9      	mvns	r1, r3
 8000b5c:	687b      	ldr	r3, [r7, #4]
 8000b5e:	400b      	ands	r3, r1
           ((PreemptPriority & (uint32_t)((1UL << (PreemptPriorityBits)) - 1UL)) << SubPriorityBits) |
 8000b60:	4313      	orrs	r3, r2
}
 8000b62:	4618      	mov	r0, r3
 8000b64:	3724      	adds	r7, #36	; 0x24
 8000b66:	46bd      	mov	sp, r7
 8000b68:	bc80      	pop	{r7}
 8000b6a:	4770      	bx	lr

08000b6c <LL_I2C_EnableClockStretching>:
  * @rmtoll CR1          NOSTRETCH     LL_I2C_EnableClockStretching
  * @param  I2Cx I2C Instance.
  * @retval None
  */
__STATIC_INLINE void LL_I2C_EnableClockStretching(I2C_TypeDef *I2Cx)
{
 8000b6c:	b480      	push	{r7}
 8000b6e:	b083      	sub	sp, #12
 8000b70:	af00      	add	r7, sp, #0
 8000b72:	6078      	str	r0, [r7, #4]
  CLEAR_BIT(I2Cx->CR1, I2C_CR1_NOSTRETCH);
 8000b74:	687b      	ldr	r3, [r7, #4]
 8000b76:	681b      	ldr	r3, [r3, #0]
 8000b78:	f023 0280 	bic.w	r2, r3, #128	; 0x80
 8000b7c:	687b      	ldr	r3, [r7, #4]
 8000b7e:	601a      	str	r2, [r3, #0]
}
 8000b80:	bf00      	nop
 8000b82:	370c      	adds	r7, #12
 8000b84:	46bd      	mov	sp, r7
 8000b86:	bc80      	pop	{r7}
 8000b88:	4770      	bx	lr

08000b8a <LL_I2C_DisableGeneralCall>:
  * @rmtoll CR1          ENGC          LL_I2C_DisableGeneralCall
  * @param  I2Cx I2C Instance.
  * @retval None
  */
__STATIC_INLINE void LL_I2C_DisableGeneralCall(I2C_TypeDef *I2Cx)
{
 8000b8a:	b480      	push	{r7}
 8000b8c:	b083      	sub	sp, #12
 8000b8e:	af00      	add	r7, sp, #0
 8000b90:	6078      	str	r0, [r7, #4]
  CLEAR_BIT(I2Cx->CR1, I2C_CR1_ENGC);
 8000b92:	687b      	ldr	r3, [r7, #4]
 8000b94:	681b      	ldr	r3, [r3, #0]
 8000b96:	f023 0240 	bic.w	r2, r3, #64	; 0x40
 8000b9a:	687b      	ldr	r3, [r7, #4]
 8000b9c:	601a      	str	r2, [r3, #0]
}
 8000b9e:	bf00      	nop
 8000ba0:	370c      	adds	r7, #12
 8000ba2:	46bd      	mov	sp, r7
 8000ba4:	bc80      	pop	{r7}
 8000ba6:	4770      	bx	lr

08000ba8 <LL_I2C_SetOwnAddress2>:
  * @param  I2Cx I2C Instance.
  * @param  OwnAddress2 This parameter must be a value between Min_Data=0 and Max_Data=0x7F.
  * @retval None
  */
__STATIC_INLINE void LL_I2C_SetOwnAddress2(I2C_TypeDef *I2Cx, uint32_t OwnAddress2)
{
 8000ba8:	b480      	push	{r7}
 8000baa:	b083      	sub	sp, #12
 8000bac:	af00      	add	r7, sp, #0
 8000bae:	6078      	str	r0, [r7, #4]
 8000bb0:	6039      	str	r1, [r7, #0]
  MODIFY_REG(I2Cx->OAR2, I2C_OAR2_ADD2, OwnAddress2);
 8000bb2:	687b      	ldr	r3, [r7, #4]
 8000bb4:	68db      	ldr	r3, [r3, #12]
 8000bb6:	f023 02fe 	bic.w	r2, r3, #254	; 0xfe
 8000bba:	683b      	ldr	r3, [r7, #0]
 8000bbc:	431a      	orrs	r2, r3
 8000bbe:	687b      	ldr	r3, [r7, #4]
 8000bc0:	60da      	str	r2, [r3, #12]
}
 8000bc2:	bf00      	nop
 8000bc4:	370c      	adds	r7, #12
 8000bc6:	46bd      	mov	sp, r7
 8000bc8:	bc80      	pop	{r7}
 8000bca:	4770      	bx	lr

08000bcc <LL_I2C_DisableOwnAddress2>:
  * @rmtoll OAR2         ENDUAL        LL_I2C_DisableOwnAddress2
  * @param  I2Cx I2C Instance.
  * @retval None
  */
__STATIC_INLINE void LL_I2C_DisableOwnAddress2(I2C_TypeDef *I2Cx)
{
 8000bcc:	b480      	push	{r7}
 8000bce:	b083      	sub	sp, #12
 8000bd0:	af00      	add	r7, sp, #0
 8000bd2:	6078      	str	r0, [r7, #4]
  CLEAR_BIT(I2Cx->OAR2, I2C_OAR2_ENDUAL);
 8000bd4:	687b      	ldr	r3, [r7, #4]
 8000bd6:	68db      	ldr	r3, [r3, #12]
 8000bd8:	f023 0201 	bic.w	r2, r3, #1
 8000bdc:	687b      	ldr	r3, [r7, #4]
 8000bde:	60da      	str	r2, [r3, #12]
}
 8000be0:	bf00      	nop
 8000be2:	370c      	adds	r7, #12
 8000be4:	46bd      	mov	sp, r7
 8000be6:	bc80      	pop	{r7}
 8000be8:	4770      	bx	lr
	...

08000bec <LL_APB1_GRP1_EnableClock>:
{
 8000bec:	b480      	push	{r7}
 8000bee:	b085      	sub	sp, #20
 8000bf0:	af00      	add	r7, sp, #0
 8000bf2:	6078      	str	r0, [r7, #4]
  SET_BIT(RCC->APB1ENR, Periphs);
 8000bf4:	4b08      	ldr	r3, [pc, #32]	; (8000c18 <LL_APB1_GRP1_EnableClock+0x2c>)
 8000bf6:	69da      	ldr	r2, [r3, #28]
 8000bf8:	4907      	ldr	r1, [pc, #28]	; (8000c18 <LL_APB1_GRP1_EnableClock+0x2c>)
 8000bfa:	687b      	ldr	r3, [r7, #4]
 8000bfc:	4313      	orrs	r3, r2
 8000bfe:	61cb      	str	r3, [r1, #28]
  tmpreg = READ_BIT(RCC->APB1ENR, Periphs);
 8000c00:	4b05      	ldr	r3, [pc, #20]	; (8000c18 <LL_APB1_GRP1_EnableClock+0x2c>)
 8000c02:	69da      	ldr	r2, [r3, #28]
 8000c04:	687b      	ldr	r3, [r7, #4]
 8000c06:	4013      	ands	r3, r2
 8000c08:	60fb      	str	r3, [r7, #12]
  (void)tmpreg;
 8000c0a:	68fb      	ldr	r3, [r7, #12]
}
 8000c0c:	bf00      	nop
 8000c0e:	3714      	adds	r7, #20
 8000c10:	46bd      	mov	sp, r7
 8000c12:	bc80      	pop	{r7}
 8000c14:	4770      	bx	lr
 8000c16:	bf00      	nop
 8000c18:	40021000 	.word	0x40021000

08000c1c <LL_APB2_GRP1_EnableClock>:
{
 8000c1c:	b480      	push	{r7}
 8000c1e:	b085      	sub	sp, #20
 8000c20:	af00      	add	r7, sp, #0
 8000c22:	6078      	str	r0, [r7, #4]
  SET_BIT(RCC->APB2ENR, Periphs);
 8000c24:	4b08      	ldr	r3, [pc, #32]	; (8000c48 <LL_APB2_GRP1_EnableClock+0x2c>)
 8000c26:	699a      	ldr	r2, [r3, #24]
 8000c28:	4907      	ldr	r1, [pc, #28]	; (8000c48 <LL_APB2_GRP1_EnableClock+0x2c>)
 8000c2a:	687b      	ldr	r3, [r7, #4]
 8000c2c:	4313      	orrs	r3, r2
 8000c2e:	618b      	str	r3, [r1, #24]
  tmpreg = READ_BIT(RCC->APB2ENR, Periphs);
 8000c30:	4b05      	ldr	r3, [pc, #20]	; (8000c48 <LL_APB2_GRP1_EnableClock+0x2c>)
 8000c32:	699a      	ldr	r2, [r3, #24]
 8000c34:	687b      	ldr	r3, [r7, #4]
 8000c36:	4013      	ands	r3, r2
 8000c38:	60fb      	str	r3, [r7, #12]
  (void)tmpreg;
 8000c3a:	68fb      	ldr	r3, [r7, #12]
}
 8000c3c:	bf00      	nop
 8000c3e:	3714      	adds	r7, #20
 8000c40:	46bd      	mov	sp, r7
 8000c42:	bc80      	pop	{r7}
 8000c44:	4770      	bx	lr
 8000c46:	bf00      	nop
 8000c48:	40021000 	.word	0x40021000

08000c4c <MX_I2C1_Init>:

/* USER CODE END 0 */

/* I2C1 init function */
void MX_I2C1_Init(void)
{
 8000c4c:	b580      	push	{r7, lr}
 8000c4e:	b08c      	sub	sp, #48	; 0x30
 8000c50:	af00      	add	r7, sp, #0

  /* USER CODE BEGIN I2C1_Init 0 */

  /* USER CODE END I2C1_Init 0 */

  LL_I2C_InitTypeDef I2C_InitStruct = {0};
 8000c52:	f107 0318 	add.w	r3, r7, #24
 8000c56:	2200      	movs	r2, #0
 8000c58:	601a      	str	r2, [r3, #0]
 8000c5a:	605a      	str	r2, [r3, #4]
 8000c5c:	609a      	str	r2, [r3, #8]
 8000c5e:	60da      	str	r2, [r3, #12]
 8000c60:	611a      	str	r2, [r3, #16]
 8000c62:	615a      	str	r2, [r3, #20]

  LL_GPIO_InitTypeDef GPIO_InitStruct = {0};
 8000c64:	1d3b      	adds	r3, r7, #4
 8000c66:	2200      	movs	r2, #0
 8000c68:	601a      	str	r2, [r3, #0]
 8000c6a:	605a      	str	r2, [r3, #4]
 8000c6c:	609a      	str	r2, [r3, #8]
 8000c6e:	60da      	str	r2, [r3, #12]
 8000c70:	611a      	str	r2, [r3, #16]

  LL_APB2_GRP1_EnableClock(LL_APB2_GRP1_PERIPH_GPIOB);
 8000c72:	2008      	movs	r0, #8
 8000c74:	f7ff ffd2 	bl	8000c1c <LL_APB2_GRP1_EnableClock>
  /**I2C1 GPIO Configuration
  PB6   ------> I2C1_SCL
  PB7   ------> I2C1_SDA
  */
  GPIO_InitStruct.Pin = LL_GPIO_PIN_6|LL_GPIO_PIN_7;
 8000c78:	f24c 03c0 	movw	r3, #49344	; 0xc0c0
 8000c7c:	607b      	str	r3, [r7, #4]
  GPIO_InitStruct.Mode = LL_GPIO_MODE_ALTERNATE;
 8000c7e:	2309      	movs	r3, #9
 8000c80:	60bb      	str	r3, [r7, #8]
  GPIO_InitStruct.Speed = LL_GPIO_SPEED_FREQ_HIGH;
 8000c82:	2303      	movs	r3, #3
 8000c84:	60fb      	str	r3, [r7, #12]
  GPIO_InitStruct.OutputType = LL_GPIO_OUTPUT_OPENDRAIN;
 8000c86:	2304      	movs	r3, #4
 8000c88:	613b      	str	r3, [r7, #16]
  LL_GPIO_Init(GPIOB, &GPIO_InitStruct);
 8000c8a:	1d3b      	adds	r3, r7, #4
 8000c8c:	4619      	mov	r1, r3
 8000c8e:	481e      	ldr	r0, [pc, #120]	; (8000d08 <MX_I2C1_Init+0xbc>)
 8000c90:	f001 fc3f 	bl	8002512 <LL_GPIO_Init>

  /* Peripheral clock enable */
  LL_APB1_GRP1_EnableClock(LL_APB1_GRP1_PERIPH_I2C1);
 8000c94:	f44f 1000 	mov.w	r0, #2097152	; 0x200000
 8000c98:	f7ff ffa8 	bl	8000bec <LL_APB1_GRP1_EnableClock>

  /* I2C1 interrupt Init */
  NVIC_SetPriority(I2C1_EV_IRQn, NVIC_EncodePriority(NVIC_GetPriorityGrouping(),0, 0));
 8000c9c:	f7ff fee0 	bl	8000a60 <__NVIC_GetPriorityGrouping>
 8000ca0:	4603      	mov	r3, r0
 8000ca2:	2200      	movs	r2, #0
 8000ca4:	2100      	movs	r1, #0
 8000ca6:	4618      	mov	r0, r3
 8000ca8:	f7ff ff2e 	bl	8000b08 <NVIC_EncodePriority>
 8000cac:	4603      	mov	r3, r0
 8000cae:	4619      	mov	r1, r3
 8000cb0:	201f      	movs	r0, #31
 8000cb2:	f7ff feff 	bl	8000ab4 <__NVIC_SetPriority>
  NVIC_EnableIRQ(I2C1_EV_IRQn);
 8000cb6:	201f      	movs	r0, #31
 8000cb8:	f7ff fee0 	bl	8000a7c <__NVIC_EnableIRQ>

  /* USER CODE END I2C1_Init 1 */

  /** I2C Initialization
  */
  LL_I2C_DisableOwnAddress2(I2C1);
 8000cbc:	4813      	ldr	r0, [pc, #76]	; (8000d0c <MX_I2C1_Init+0xc0>)
 8000cbe:	f7ff ff85 	bl	8000bcc <LL_I2C_DisableOwnAddress2>
  LL_I2C_DisableGeneralCall(I2C1);
 8000cc2:	4812      	ldr	r0, [pc, #72]	; (8000d0c <MX_I2C1_Init+0xc0>)
 8000cc4:	f7ff ff61 	bl	8000b8a <LL_I2C_DisableGeneralCall>
  LL_I2C_EnableClockStretching(I2C1);
 8000cc8:	4810      	ldr	r0, [pc, #64]	; (8000d0c <MX_I2C1_Init+0xc0>)
 8000cca:	f7ff ff4f 	bl	8000b6c <LL_I2C_EnableClockStretching>
  I2C_InitStruct.PeripheralMode = LL_I2C_MODE_I2C;
 8000cce:	2300      	movs	r3, #0
 8000cd0:	61bb      	str	r3, [r7, #24]
  I2C_InitStruct.ClockSpeed = 400000;
 8000cd2:	4b0f      	ldr	r3, [pc, #60]	; (8000d10 <MX_I2C1_Init+0xc4>)
 8000cd4:	61fb      	str	r3, [r7, #28]
  I2C_InitStruct.DutyCycle = LL_I2C_DUTYCYCLE_2;
 8000cd6:	2300      	movs	r3, #0
 8000cd8:	623b      	str	r3, [r7, #32]
  I2C_InitStruct.OwnAddress1 = 0;
 8000cda:	2300      	movs	r3, #0
 8000cdc:	627b      	str	r3, [r7, #36]	; 0x24
  I2C_InitStruct.TypeAcknowledge = LL_I2C_ACK;
 8000cde:	f44f 6380 	mov.w	r3, #1024	; 0x400
 8000ce2:	62bb      	str	r3, [r7, #40]	; 0x28
  I2C_InitStruct.OwnAddrSize = LL_I2C_OWNADDRESS1_7BIT;
 8000ce4:	f44f 4380 	mov.w	r3, #16384	; 0x4000
 8000ce8:	62fb      	str	r3, [r7, #44]	; 0x2c
  LL_I2C_Init(I2C1, &I2C_InitStruct);
 8000cea:	f107 0318 	add.w	r3, r7, #24
 8000cee:	4619      	mov	r1, r3
 8000cf0:	4806      	ldr	r0, [pc, #24]	; (8000d0c <MX_I2C1_Init+0xc0>)
 8000cf2:	f001 fd63 	bl	80027bc <LL_I2C_Init>
  LL_I2C_SetOwnAddress2(I2C1, 0);
 8000cf6:	2100      	movs	r1, #0
 8000cf8:	4804      	ldr	r0, [pc, #16]	; (8000d0c <MX_I2C1_Init+0xc0>)
 8000cfa:	f7ff ff55 	bl	8000ba8 <LL_I2C_SetOwnAddress2>
  /* USER CODE BEGIN I2C1_Init 2 */

  /* USER CODE END I2C1_Init 2 */

}
 8000cfe:	bf00      	nop
 8000d00:	3730      	adds	r7, #48	; 0x30
 8000d02:	46bd      	mov	sp, r7
 8000d04:	bd80      	pop	{r7, pc}
 8000d06:	bf00      	nop
 8000d08:	40010c00 	.word	0x40010c00
 8000d0c:	40005400 	.word	0x40005400
 8000d10:	00061a80 	.word	0x00061a80

08000d14 <__NVIC_SetPriorityGrouping>:
{
 8000d14:	b480      	push	{r7}
 8000d16:	b085      	sub	sp, #20
 8000d18:	af00      	add	r7, sp, #0
 8000d1a:	6078      	str	r0, [r7, #4]
  uint32_t PriorityGroupTmp = (PriorityGroup & (uint32_t)0x07UL);             /* only values 0..7 are used          */
 8000d1c:	687b      	ldr	r3, [r7, #4]
 8000d1e:	f003 0307 	and.w	r3, r3, #7
 8000d22:	60fb      	str	r3, [r7, #12]
  reg_value  =  SCB->AIRCR;                                                   /* read old register configuration    */
 8000d24:	4b0c      	ldr	r3, [pc, #48]	; (8000d58 <__NVIC_SetPriorityGrouping+0x44>)
 8000d26:	68db      	ldr	r3, [r3, #12]
 8000d28:	60bb      	str	r3, [r7, #8]
  reg_value &= ~((uint32_t)(SCB_AIRCR_VECTKEY_Msk | SCB_AIRCR_PRIGROUP_Msk)); /* clear bits to change               */
 8000d2a:	68ba      	ldr	r2, [r7, #8]
 8000d2c:	f64f 03ff 	movw	r3, #63743	; 0xf8ff
 8000d30:	4013      	ands	r3, r2
 8000d32:	60bb      	str	r3, [r7, #8]
                (PriorityGroupTmp << SCB_AIRCR_PRIGROUP_Pos) );               /* Insert write key and priority group */
 8000d34:	68fb      	ldr	r3, [r7, #12]
 8000d36:	021a      	lsls	r2, r3, #8
                ((uint32_t)0x5FAUL << SCB_AIRCR_VECTKEY_Pos) |
 8000d38:	68bb      	ldr	r3, [r7, #8]
 8000d3a:	4313      	orrs	r3, r2
  reg_value  =  (reg_value                                   |
 8000d3c:	f043 63bf 	orr.w	r3, r3, #100139008	; 0x5f80000
 8000d40:	f443 3300 	orr.w	r3, r3, #131072	; 0x20000
 8000d44:	60bb      	str	r3, [r7, #8]
  SCB->AIRCR =  reg_value;
 8000d46:	4a04      	ldr	r2, [pc, #16]	; (8000d58 <__NVIC_SetPriorityGrouping+0x44>)
 8000d48:	68bb      	ldr	r3, [r7, #8]
 8000d4a:	60d3      	str	r3, [r2, #12]
}
 8000d4c:	bf00      	nop
 8000d4e:	3714      	adds	r7, #20
 8000d50:	46bd      	mov	sp, r7
 8000d52:	bc80      	pop	{r7}
 8000d54:	4770      	bx	lr
 8000d56:	bf00      	nop
 8000d58:	e000ed00 	.word	0xe000ed00

08000d5c <__NVIC_GetPriorityGrouping>:
{
 8000d5c:	b480      	push	{r7}
 8000d5e:	af00      	add	r7, sp, #0
  return ((uint32_t)((SCB->AIRCR & SCB_AIRCR_PRIGROUP_Msk) >> SCB_AIRCR_PRIGROUP_Pos));
 8000d60:	4b04      	ldr	r3, [pc, #16]	; (8000d74 <__NVIC_GetPriorityGrouping+0x18>)
 8000d62:	68db      	ldr	r3, [r3, #12]
 8000d64:	0a1b      	lsrs	r3, r3, #8
 8000d66:	f003 0307 	and.w	r3, r3, #7
}
 8000d6a:	4618      	mov	r0, r3
 8000d6c:	46bd      	mov	sp, r7
 8000d6e:	bc80      	pop	{r7}
 8000d70:	4770      	bx	lr
 8000d72:	bf00      	nop
 8000d74:	e000ed00 	.word	0xe000ed00

08000d78 <__NVIC_SetPriority>:
{
 8000d78:	b480      	push	{r7}
 8000d7a:	b083      	sub	sp, #12
 8000d7c:	af00      	add	r7, sp, #0
 8000d7e:	4603      	mov	r3, r0
 8000d80:	6039      	str	r1, [r7, #0]
 8000d82:	71fb      	strb	r3, [r7, #7]
  if ((int32_t)(IRQn) >= 0)
 8000d84:	f997 3007 	ldrsb.w	r3, [r7, #7]
 8000d88:	2b00      	cmp	r3, #0
 8000d8a:	db0a      	blt.n	8000da2 <__NVIC_SetPriority+0x2a>
    NVIC->IP[((uint32_t)IRQn)]               = (uint8_t)((priority << (8U - __NVIC_PRIO_BITS)) & (uint32_t)0xFFUL);
 8000d8c:	683b      	ldr	r3, [r7, #0]
 8000d8e:	b2da      	uxtb	r2, r3
 8000d90:	490c      	ldr	r1, [pc, #48]	; (8000dc4 <__NVIC_SetPriority+0x4c>)
 8000d92:	f997 3007 	ldrsb.w	r3, [r7, #7]
 8000d96:	0112      	lsls	r2, r2, #4
 8000d98:	b2d2      	uxtb	r2, r2
 8000d9a:	440b      	add	r3, r1
 8000d9c:	f883 2300 	strb.w	r2, [r3, #768]	; 0x300
}
 8000da0:	e00a      	b.n	8000db8 <__NVIC_SetPriority+0x40>
    SCB->SHP[(((uint32_t)IRQn) & 0xFUL)-4UL] = (uint8_t)((priority << (8U - __NVIC_PRIO_BITS)) & (uint32_t)0xFFUL);
 8000da2:	683b      	ldr	r3, [r7, #0]
 8000da4:	b2da      	uxtb	r2, r3
 8000da6:	4908      	ldr	r1, [pc, #32]	; (8000dc8 <__NVIC_SetPriority+0x50>)
 8000da8:	79fb      	ldrb	r3, [r7, #7]
 8000daa:	f003 030f 	and.w	r3, r3, #15
 8000dae:	3b04      	subs	r3, #4
 8000db0:	0112      	lsls	r2, r2, #4
 8000db2:	b2d2      	uxtb	r2, r2
 8000db4:	440b      	add	r3, r1
 8000db6:	761a      	strb	r2, [r3, #24]
}
 8000db8:	bf00      	nop
 8000dba:	370c      	adds	r7, #12
 8000dbc:	46bd      	mov	sp, r7
 8000dbe:	bc80      	pop	{r7}
 8000dc0:	4770      	bx	lr
 8000dc2:	bf00      	nop
 8000dc4:	e000e100 	.word	0xe000e100
 8000dc8:	e000ed00 	.word	0xe000ed00

08000dcc <NVIC_EncodePriority>:
{
 8000dcc:	b480      	push	{r7}
 8000dce:	b089      	sub	sp, #36	; 0x24
 8000dd0:	af00      	add	r7, sp, #0
 8000dd2:	60f8      	str	r0, [r7, #12]
 8000dd4:	60b9      	str	r1, [r7, #8]
 8000dd6:	607a      	str	r2, [r7, #4]
  uint32_t PriorityGroupTmp = (PriorityGroup & (uint32_t)0x07UL);   /* only values 0..7 are used          */
 8000dd8:	68fb      	ldr	r3, [r7, #12]
 8000dda:	f003 0307 	and.w	r3, r3, #7
 8000dde:	61fb      	str	r3, [r7, #28]
  PreemptPriorityBits = ((7UL - PriorityGroupTmp) > (uint32_t)(__NVIC_PRIO_BITS)) ? (uint32_t)(__NVIC_PRIO_BITS) : (uint32_t)(7UL - PriorityGroupTmp);
 8000de0:	69fb      	ldr	r3, [r7, #28]
 8000de2:	f1c3 0307 	rsb	r3, r3, #7
 8000de6:	2b04      	cmp	r3, #4
 8000de8:	bf28      	it	cs
 8000dea:	2304      	movcs	r3, #4
 8000dec:	61bb      	str	r3, [r7, #24]
  SubPriorityBits     = ((PriorityGroupTmp + (uint32_t)(__NVIC_PRIO_BITS)) < (uint32_t)7UL) ? (uint32_t)0UL : (uint32_t)((PriorityGroupTmp - 7UL) + (uint32_t)(__NVIC_PRIO_BITS));
 8000dee:	69fb      	ldr	r3, [r7, #28]
 8000df0:	3304      	adds	r3, #4
 8000df2:	2b06      	cmp	r3, #6
 8000df4:	d902      	bls.n	8000dfc <NVIC_EncodePriority+0x30>
 8000df6:	69fb      	ldr	r3, [r7, #28]
 8000df8:	3b03      	subs	r3, #3
 8000dfa:	e000      	b.n	8000dfe <NVIC_EncodePriority+0x32>
 8000dfc:	2300      	movs	r3, #0
 8000dfe:	617b      	str	r3, [r7, #20]
           ((PreemptPriority & (uint32_t)((1UL << (PreemptPriorityBits)) - 1UL)) << SubPriorityBits) |
 8000e00:	2201      	movs	r2, #1
 8000e02:	69bb      	ldr	r3, [r7, #24]
 8000e04:	fa02 f303 	lsl.w	r3, r2, r3
 8000e08:	1e5a      	subs	r2, r3, #1
 8000e0a:	68bb      	ldr	r3, [r7, #8]
 8000e0c:	401a      	ands	r2, r3
 8000e0e:	697b      	ldr	r3, [r7, #20]
 8000e10:	409a      	lsls	r2, r3
           ((SubPriority     & (uint32_t)((1UL << (SubPriorityBits    )) - 1UL)))
 8000e12:	2101      	movs	r1, #1
 8000e14:	697b      	ldr	r3, [r7, #20]
 8000e16:	fa01 f303 	lsl.w	r3, r1, r3
 8000e1a:	1e59      	subs	r1, r3, #1
 8000e1c:	687b      	ldr	r3, [r7, #4]
 8000e1e:	400b      	ands	r3, r1
         );
 8000e20:	4313      	orrs	r3, r2
}
 8000e22:	4618      	mov	r0, r3
 8000e24:	3724      	adds	r7, #36	; 0x24
 8000e26:	46bd      	mov	sp, r7
 8000e28:	bc80      	pop	{r7}
 8000e2a:	4770      	bx	lr

08000e2c <SysTick_Config>:
  \note    When the variable <b>__Vendor_SysTickConfig</b> is set to 1, then the
           function <b>SysTick_Config</b> is not included. In this case, the file <b><i>device</i>.h</b>
           must contain a vendor-specific implementation of this function.
 */
__STATIC_INLINE uint32_t SysTick_Config(uint32_t ticks)
{
 8000e2c:	b580      	push	{r7, lr}
 8000e2e:	b082      	sub	sp, #8
 8000e30:	af00      	add	r7, sp, #0
 8000e32:	6078      	str	r0, [r7, #4]
  if ((ticks - 1UL) > SysTick_LOAD_RELOAD_Msk)
 8000e34:	687b      	ldr	r3, [r7, #4]
 8000e36:	3b01      	subs	r3, #1
 8000e38:	f1b3 7f80 	cmp.w	r3, #16777216	; 0x1000000
 8000e3c:	d301      	bcc.n	8000e42 <SysTick_Config+0x16>
  {
    return (1UL);                                                   /* Reload value impossible */
 8000e3e:	2301      	movs	r3, #1
 8000e40:	e00f      	b.n	8000e62 <SysTick_Config+0x36>
  }

  SysTick->LOAD  = (uint32_t)(ticks - 1UL);                         /* set reload register */
 8000e42:	4a0a      	ldr	r2, [pc, #40]	; (8000e6c <SysTick_Config+0x40>)
 8000e44:	687b      	ldr	r3, [r7, #4]
 8000e46:	3b01      	subs	r3, #1
 8000e48:	6053      	str	r3, [r2, #4]
  NVIC_SetPriority (SysTick_IRQn, (1UL << __NVIC_PRIO_BITS) - 1UL); /* set Priority for Systick Interrupt */
 8000e4a:	210f      	movs	r1, #15
 8000e4c:	f04f 30ff 	mov.w	r0, #4294967295	; 0xffffffff
 8000e50:	f7ff ff92 	bl	8000d78 <__NVIC_SetPriority>
  SysTick->VAL   = 0UL;                                             /* Load the SysTick Counter Value */
 8000e54:	4b05      	ldr	r3, [pc, #20]	; (8000e6c <SysTick_Config+0x40>)
 8000e56:	2200      	movs	r2, #0
 8000e58:	609a      	str	r2, [r3, #8]
  SysTick->CTRL  = SysTick_CTRL_CLKSOURCE_Msk |
 8000e5a:	4b04      	ldr	r3, [pc, #16]	; (8000e6c <SysTick_Config+0x40>)
 8000e5c:	2207      	movs	r2, #7
 8000e5e:	601a      	str	r2, [r3, #0]
                   SysTick_CTRL_TICKINT_Msk   |
                   SysTick_CTRL_ENABLE_Msk;                         /* Enable SysTick IRQ and SysTick Timer */
  return (0UL);                                                     /* Function successful */
 8000e60:	2300      	movs	r3, #0
}
 8000e62:	4618      	mov	r0, r3
 8000e64:	3708      	adds	r7, #8
 8000e66:	46bd      	mov	sp, r7
 8000e68:	bd80      	pop	{r7, pc}
 8000e6a:	bf00      	nop
 8000e6c:	e000e010 	.word	0xe000e010

08000e70 <LL_RCC_HSE_Enable>:
  * @brief  Enable HSE crystal oscillator (HSE ON)
  * @rmtoll CR           HSEON         LL_RCC_HSE_Enable
  * @retval None
  */
__STATIC_INLINE void LL_RCC_HSE_Enable(void)
{
 8000e70:	b480      	push	{r7}
 8000e72:	af00      	add	r7, sp, #0
  SET_BIT(RCC->CR, RCC_CR_HSEON);
 8000e74:	4b04      	ldr	r3, [pc, #16]	; (8000e88 <LL_RCC_HSE_Enable+0x18>)
 8000e76:	681b      	ldr	r3, [r3, #0]
 8000e78:	4a03      	ldr	r2, [pc, #12]	; (8000e88 <LL_RCC_HSE_Enable+0x18>)
 8000e7a:	f443 3380 	orr.w	r3, r3, #65536	; 0x10000
 8000e7e:	6013      	str	r3, [r2, #0]
}
 8000e80:	bf00      	nop
 8000e82:	46bd      	mov	sp, r7
 8000e84:	bc80      	pop	{r7}
 8000e86:	4770      	bx	lr
 8000e88:	40021000 	.word	0x40021000

08000e8c <LL_RCC_HSE_IsReady>:
  * @brief  Check if HSE oscillator Ready
  * @rmtoll CR           HSERDY        LL_RCC_HSE_IsReady
  * @retval State of bit (1 or 0).
  */
__STATIC_INLINE uint32_t LL_RCC_HSE_IsReady(void)
{
 8000e8c:	b480      	push	{r7}
 8000e8e:	af00      	add	r7, sp, #0
  return (READ_BIT(RCC->CR, RCC_CR_HSERDY) == (RCC_CR_HSERDY));
 8000e90:	4b06      	ldr	r3, [pc, #24]	; (8000eac <LL_RCC_HSE_IsReady+0x20>)
 8000e92:	681b      	ldr	r3, [r3, #0]
 8000e94:	f403 3300 	and.w	r3, r3, #131072	; 0x20000
 8000e98:	f5b3 3f00 	cmp.w	r3, #131072	; 0x20000
 8000e9c:	bf0c      	ite	eq
 8000e9e:	2301      	moveq	r3, #1
 8000ea0:	2300      	movne	r3, #0
 8000ea2:	b2db      	uxtb	r3, r3
}
 8000ea4:	4618      	mov	r0, r3
 8000ea6:	46bd      	mov	sp, r7
 8000ea8:	bc80      	pop	{r7}
 8000eaa:	4770      	bx	lr
 8000eac:	40021000 	.word	0x40021000

08000eb0 <LL_RCC_SetSysClkSource>:
  *         @arg @ref LL_RCC_SYS_CLKSOURCE_HSE
  *         @arg @ref LL_RCC_SYS_CLKSOURCE_PLL
  * @retval None
  */
__STATIC_INLINE void LL_RCC_SetSysClkSource(uint32_t Source)
{
 8000eb0:	b480      	push	{r7}
 8000eb2:	b083      	sub	sp, #12
 8000eb4:	af00      	add	r7, sp, #0
 8000eb6:	6078      	str	r0, [r7, #4]
  MODIFY_REG(RCC->CFGR, RCC_CFGR_SW, Source);
 8000eb8:	4b06      	ldr	r3, [pc, #24]	; (8000ed4 <LL_RCC_SetSysClkSource+0x24>)
 8000eba:	685b      	ldr	r3, [r3, #4]
 8000ebc:	f023 0203 	bic.w	r2, r3, #3
 8000ec0:	4904      	ldr	r1, [pc, #16]	; (8000ed4 <LL_RCC_SetSysClkSource+0x24>)
 8000ec2:	687b      	ldr	r3, [r7, #4]
 8000ec4:	4313      	orrs	r3, r2
 8000ec6:	604b      	str	r3, [r1, #4]
}
 8000ec8:	bf00      	nop
 8000eca:	370c      	adds	r7, #12
 8000ecc:	46bd      	mov	sp, r7
 8000ece:	bc80      	pop	{r7}
 8000ed0:	4770      	bx	lr
 8000ed2:	bf00      	nop
 8000ed4:	40021000 	.word	0x40021000

08000ed8 <LL_RCC_GetSysClkSource>:
  *         @arg @ref LL_RCC_SYS_CLKSOURCE_STATUS_HSI
  *         @arg @ref LL_RCC_SYS_CLKSOURCE_STATUS_HSE
  *         @arg @ref LL_RCC_SYS_CLKSOURCE_STATUS_PLL
  */
__STATIC_INLINE uint32_t LL_RCC_GetSysClkSource(void)
{
 8000ed8:	b480      	push	{r7}
 8000eda:	af00      	add	r7, sp, #0
  return (uint32_t)(READ_BIT(RCC->CFGR, RCC_CFGR_SWS));
 8000edc:	4b03      	ldr	r3, [pc, #12]	; (8000eec <LL_RCC_GetSysClkSource+0x14>)
 8000ede:	685b      	ldr	r3, [r3, #4]
 8000ee0:	f003 030c 	and.w	r3, r3, #12
}
 8000ee4:	4618      	mov	r0, r3
 8000ee6:	46bd      	mov	sp, r7
 8000ee8:	bc80      	pop	{r7}
 8000eea:	4770      	bx	lr
 8000eec:	40021000 	.word	0x40021000

08000ef0 <LL_RCC_SetAHBPrescaler>:
  *         @arg @ref LL_RCC_SYSCLK_DIV_256
  *         @arg @ref LL_RCC_SYSCLK_DIV_512
  * @retval None
  */
__STATIC_INLINE void LL_RCC_SetAHBPrescaler(uint32_t Prescaler)
{
 8000ef0:	b480      	push	{r7}
 8000ef2:	b083      	sub	sp, #12
 8000ef4:	af00      	add	r7, sp, #0
 8000ef6:	6078      	str	r0, [r7, #4]
  MODIFY_REG(RCC->CFGR, RCC_CFGR_HPRE, Prescaler);
 8000ef8:	4b06      	ldr	r3, [pc, #24]	; (8000f14 <LL_RCC_SetAHBPrescaler+0x24>)
 8000efa:	685b      	ldr	r3, [r3, #4]
 8000efc:	f023 02f0 	bic.w	r2, r3, #240	; 0xf0
 8000f00:	4904      	ldr	r1, [pc, #16]	; (8000f14 <LL_RCC_SetAHBPrescaler+0x24>)
 8000f02:	687b      	ldr	r3, [r7, #4]
 8000f04:	4313      	orrs	r3, r2
 8000f06:	604b      	str	r3, [r1, #4]
}
 8000f08:	bf00      	nop
 8000f0a:	370c      	adds	r7, #12
 8000f0c:	46bd      	mov	sp, r7
 8000f0e:	bc80      	pop	{r7}
 8000f10:	4770      	bx	lr
 8000f12:	bf00      	nop
 8000f14:	40021000 	.word	0x40021000

08000f18 <LL_RCC_SetAPB1Prescaler>:
  *         @arg @ref LL_RCC_APB1_DIV_8
  *         @arg @ref LL_RCC_APB1_DIV_16
  * @retval None
  */
__STATIC_INLINE void LL_RCC_SetAPB1Prescaler(uint32_t Prescaler)
{
 8000f18:	b480      	push	{r7}
 8000f1a:	b083      	sub	sp, #12
 8000f1c:	af00      	add	r7, sp, #0
 8000f1e:	6078      	str	r0, [r7, #4]
  MODIFY_REG(RCC->CFGR, RCC_CFGR_PPRE1, Prescaler);
 8000f20:	4b06      	ldr	r3, [pc, #24]	; (8000f3c <LL_RCC_SetAPB1Prescaler+0x24>)
 8000f22:	685b      	ldr	r3, [r3, #4]
 8000f24:	f423 62e0 	bic.w	r2, r3, #1792	; 0x700
 8000f28:	4904      	ldr	r1, [pc, #16]	; (8000f3c <LL_RCC_SetAPB1Prescaler+0x24>)
 8000f2a:	687b      	ldr	r3, [r7, #4]
 8000f2c:	4313      	orrs	r3, r2
 8000f2e:	604b      	str	r3, [r1, #4]
}
 8000f30:	bf00      	nop
 8000f32:	370c      	adds	r7, #12
 8000f34:	46bd      	mov	sp, r7
 8000f36:	bc80      	pop	{r7}
 8000f38:	4770      	bx	lr
 8000f3a:	bf00      	nop
 8000f3c:	40021000 	.word	0x40021000

08000f40 <LL_RCC_SetAPB2Prescaler>:
  *         @arg @ref LL_RCC_APB2_DIV_8
  *         @arg @ref LL_RCC_APB2_DIV_16
  * @retval None
  */
__STATIC_INLINE void LL_RCC_SetAPB2Prescaler(uint32_t Prescaler)
{
 8000f40:	b480      	push	{r7}
 8000f42:	b083      	sub	sp, #12
 8000f44:	af00      	add	r7, sp, #0
 8000f46:	6078      	str	r0, [r7, #4]
  MODIFY_REG(RCC->CFGR, RCC_CFGR_PPRE2, Prescaler);
 8000f48:	4b06      	ldr	r3, [pc, #24]	; (8000f64 <LL_RCC_SetAPB2Prescaler+0x24>)
 8000f4a:	685b      	ldr	r3, [r3, #4]
 8000f4c:	f423 5260 	bic.w	r2, r3, #14336	; 0x3800
 8000f50:	4904      	ldr	r1, [pc, #16]	; (8000f64 <LL_RCC_SetAPB2Prescaler+0x24>)
 8000f52:	687b      	ldr	r3, [r7, #4]
 8000f54:	4313      	orrs	r3, r2
 8000f56:	604b      	str	r3, [r1, #4]
}
 8000f58:	bf00      	nop
 8000f5a:	370c      	adds	r7, #12
 8000f5c:	46bd      	mov	sp, r7
 8000f5e:	bc80      	pop	{r7}
 8000f60:	4770      	bx	lr
 8000f62:	bf00      	nop
 8000f64:	40021000 	.word	0x40021000

08000f68 <LL_RCC_PLL_Enable>:
  * @brief  Enable PLL
  * @rmtoll CR           PLLON         LL_RCC_PLL_Enable
  * @retval None
  */
__STATIC_INLINE void LL_RCC_PLL_Enable(void)
{
 8000f68:	b480      	push	{r7}
 8000f6a:	af00      	add	r7, sp, #0
  SET_BIT(RCC->CR, RCC_CR_PLLON);
 8000f6c:	4b04      	ldr	r3, [pc, #16]	; (8000f80 <LL_RCC_PLL_Enable+0x18>)
 8000f6e:	681b      	ldr	r3, [r3, #0]
 8000f70:	4a03      	ldr	r2, [pc, #12]	; (8000f80 <LL_RCC_PLL_Enable+0x18>)
 8000f72:	f043 7380 	orr.w	r3, r3, #16777216	; 0x1000000
 8000f76:	6013      	str	r3, [r2, #0]
}
 8000f78:	bf00      	nop
 8000f7a:	46bd      	mov	sp, r7
 8000f7c:	bc80      	pop	{r7}
 8000f7e:	4770      	bx	lr
 8000f80:	40021000 	.word	0x40021000

08000f84 <LL_RCC_PLL_IsReady>:
  * @brief  Check if PLL Ready
  * @rmtoll CR           PLLRDY        LL_RCC_PLL_IsReady
  * @retval State of bit (1 or 0).
  */
__STATIC_INLINE uint32_t LL_RCC_PLL_IsReady(void)
{
 8000f84:	b480      	push	{r7}
 8000f86:	af00      	add	r7, sp, #0
  return (READ_BIT(RCC->CR, RCC_CR_PLLRDY) == (RCC_CR_PLLRDY));
 8000f88:	4b06      	ldr	r3, [pc, #24]	; (8000fa4 <LL_RCC_PLL_IsReady+0x20>)
 8000f8a:	681b      	ldr	r3, [r3, #0]
 8000f8c:	f003 7300 	and.w	r3, r3, #33554432	; 0x2000000
 8000f90:	f1b3 7f00 	cmp.w	r3, #33554432	; 0x2000000
 8000f94:	bf0c      	ite	eq
 8000f96:	2301      	moveq	r3, #1
 8000f98:	2300      	movne	r3, #0
 8000f9a:	b2db      	uxtb	r3, r3
}
 8000f9c:	4618      	mov	r0, r3
 8000f9e:	46bd      	mov	sp, r7
 8000fa0:	bc80      	pop	{r7}
 8000fa2:	4770      	bx	lr
 8000fa4:	40021000 	.word	0x40021000

08000fa8 <LL_RCC_PLL_ConfigDomain_SYS>:
  *
  *         (*) value not defined in all devices
  * @retval None
  */
__STATIC_INLINE void LL_RCC_PLL_ConfigDomain_SYS(uint32_t Source, uint32_t PLLMul)
{
 8000fa8:	b480      	push	{r7}
 8000faa:	b083      	sub	sp, #12
 8000fac:	af00      	add	r7, sp, #0
 8000fae:	6078      	str	r0, [r7, #4]
 8000fb0:	6039      	str	r1, [r7, #0]
  MODIFY_REG(RCC->CFGR, RCC_CFGR_PLLSRC | RCC_CFGR_PLLXTPRE | RCC_CFGR_PLLMULL,
 8000fb2:	4b08      	ldr	r3, [pc, #32]	; (8000fd4 <LL_RCC_PLL_ConfigDomain_SYS+0x2c>)
 8000fb4:	685b      	ldr	r3, [r3, #4]
 8000fb6:	f423 127c 	bic.w	r2, r3, #4128768	; 0x3f0000
 8000fba:	687b      	ldr	r3, [r7, #4]
 8000fbc:	f403 3140 	and.w	r1, r3, #196608	; 0x30000
 8000fc0:	683b      	ldr	r3, [r7, #0]
 8000fc2:	430b      	orrs	r3, r1
 8000fc4:	4903      	ldr	r1, [pc, #12]	; (8000fd4 <LL_RCC_PLL_ConfigDomain_SYS+0x2c>)
 8000fc6:	4313      	orrs	r3, r2
 8000fc8:	604b      	str	r3, [r1, #4]
             (Source & RCC_CFGR2_PREDIV1) | ((Source & (RCC_CFGR2_PREDIV1SRC << 4U)) >> 4U));
#else
  MODIFY_REG(RCC->CFGR2, RCC_CFGR2_PREDIV1, (Source & RCC_CFGR2_PREDIV1));
#endif /*RCC_CFGR2_PREDIV1SRC*/
#endif /*RCC_CFGR2_PREDIV1*/
}
 8000fca:	bf00      	nop
 8000fcc:	370c      	adds	r7, #12
 8000fce:	46bd      	mov	sp, r7
 8000fd0:	bc80      	pop	{r7}
 8000fd2:	4770      	bx	lr
 8000fd4:	40021000 	.word	0x40021000

08000fd8 <LL_APB1_GRP1_EnableClock>:
{
 8000fd8:	b480      	push	{r7}
 8000fda:	b085      	sub	sp, #20
 8000fdc:	af00      	add	r7, sp, #0
 8000fde:	6078      	str	r0, [r7, #4]
  SET_BIT(RCC->APB1ENR, Periphs);
 8000fe0:	4b08      	ldr	r3, [pc, #32]	; (8001004 <LL_APB1_GRP1_EnableClock+0x2c>)
 8000fe2:	69da      	ldr	r2, [r3, #28]
 8000fe4:	4907      	ldr	r1, [pc, #28]	; (8001004 <LL_APB1_GRP1_EnableClock+0x2c>)
 8000fe6:	687b      	ldr	r3, [r7, #4]
 8000fe8:	4313      	orrs	r3, r2
 8000fea:	61cb      	str	r3, [r1, #28]
  tmpreg = READ_BIT(RCC->APB1ENR, Periphs);
 8000fec:	4b05      	ldr	r3, [pc, #20]	; (8001004 <LL_APB1_GRP1_EnableClock+0x2c>)
 8000fee:	69da      	ldr	r2, [r3, #28]
 8000ff0:	687b      	ldr	r3, [r7, #4]
 8000ff2:	4013      	ands	r3, r2
 8000ff4:	60fb      	str	r3, [r7, #12]
  (void)tmpreg;
 8000ff6:	68fb      	ldr	r3, [r7, #12]
}
 8000ff8:	bf00      	nop
 8000ffa:	3714      	adds	r7, #20
 8000ffc:	46bd      	mov	sp, r7
 8000ffe:	bc80      	pop	{r7}
 8001000:	4770      	bx	lr
 8001002:	bf00      	nop
 8001004:	40021000 	.word	0x40021000

08001008 <LL_APB2_GRP1_EnableClock>:
{
 8001008:	b480      	push	{r7}
 800100a:	b085      	sub	sp, #20
 800100c:	af00      	add	r7, sp, #0
 800100e:	6078      	str	r0, [r7, #4]
  SET_BIT(RCC->APB2ENR, Periphs);
 8001010:	4b08      	ldr	r3, [pc, #32]	; (8001034 <LL_APB2_GRP1_EnableClock+0x2c>)
 8001012:	699a      	ldr	r2, [r3, #24]
 8001014:	4907      	ldr	r1, [pc, #28]	; (8001034 <LL_APB2_GRP1_EnableClock+0x2c>)
 8001016:	687b      	ldr	r3, [r7, #4]
 8001018:	4313      	orrs	r3, r2
 800101a:	618b      	str	r3, [r1, #24]
  tmpreg = READ_BIT(RCC->APB2ENR, Periphs);
 800101c:	4b05      	ldr	r3, [pc, #20]	; (8001034 <LL_APB2_GRP1_EnableClock+0x2c>)
 800101e:	699a      	ldr	r2, [r3, #24]
 8001020:	687b      	ldr	r3, [r7, #4]
 8001022:	4013      	ands	r3, r2
 8001024:	60fb      	str	r3, [r7, #12]
  (void)tmpreg;
 8001026:	68fb      	ldr	r3, [r7, #12]
}
 8001028:	bf00      	nop
 800102a:	3714      	adds	r7, #20
 800102c:	46bd      	mov	sp, r7
 800102e:	bc80      	pop	{r7}
 8001030:	4770      	bx	lr
 8001032:	bf00      	nop
 8001034:	40021000 	.word	0x40021000

08001038 <LL_FLASH_SetLatency>:
  *         @arg @ref LL_FLASH_LATENCY_1
  *         @arg @ref LL_FLASH_LATENCY_2
  * @retval None
  */
__STATIC_INLINE void LL_FLASH_SetLatency(uint32_t Latency)
{
 8001038:	b480      	push	{r7}
 800103a:	b083      	sub	sp, #12
 800103c:	af00      	add	r7, sp, #0
 800103e:	6078      	str	r0, [r7, #4]
  MODIFY_REG(FLASH->ACR, FLASH_ACR_LATENCY, Latency);
 8001040:	4b06      	ldr	r3, [pc, #24]	; (800105c <LL_FLASH_SetLatency+0x24>)
 8001042:	681b      	ldr	r3, [r3, #0]
 8001044:	f023 0207 	bic.w	r2, r3, #7
 8001048:	4904      	ldr	r1, [pc, #16]	; (800105c <LL_FLASH_SetLatency+0x24>)
 800104a:	687b      	ldr	r3, [r7, #4]
 800104c:	4313      	orrs	r3, r2
 800104e:	600b      	str	r3, [r1, #0]
}
 8001050:	bf00      	nop
 8001052:	370c      	adds	r7, #12
 8001054:	46bd      	mov	sp, r7
 8001056:	bc80      	pop	{r7}
 8001058:	4770      	bx	lr
 800105a:	bf00      	nop
 800105c:	40022000 	.word	0x40022000

08001060 <LL_FLASH_GetLatency>:
  *         @arg @ref LL_FLASH_LATENCY_0
  *         @arg @ref LL_FLASH_LATENCY_1
  *         @arg @ref LL_FLASH_LATENCY_2
  */
__STATIC_INLINE uint32_t LL_FLASH_GetLatency(void)
{
 8001060:	b480      	push	{r7}
 8001062:	af00      	add	r7, sp, #0
  return (uint32_t)(READ_BIT(FLASH->ACR, FLASH_ACR_LATENCY));
 8001064:	4b03      	ldr	r3, [pc, #12]	; (8001074 <LL_FLASH_GetLatency+0x14>)
 8001066:	681b      	ldr	r3, [r3, #0]
 8001068:	f003 0307 	and.w	r3, r3, #7
}
 800106c:	4618      	mov	r0, r3
 800106e:	46bd      	mov	sp, r7
 8001070:	bc80      	pop	{r7}
 8001072:	4770      	bx	lr
 8001074:	40022000 	.word	0x40022000

08001078 <LL_USART_EnableIT_RXNE>:
  * @rmtoll CR1          RXNEIE        LL_USART_EnableIT_RXNE
  * @param  USARTx USART Instance
  * @retval None
  */
__STATIC_INLINE void LL_USART_EnableIT_RXNE(USART_TypeDef *USARTx)
{
 8001078:	b480      	push	{r7}
 800107a:	b089      	sub	sp, #36	; 0x24
 800107c:	af00      	add	r7, sp, #0
 800107e:	6078      	str	r0, [r7, #4]
  ATOMIC_SET_BIT(USARTx->CR1, USART_CR1_RXNEIE);
 8001080:	687b      	ldr	r3, [r7, #4]
 8001082:	330c      	adds	r3, #12
 8001084:	60fb      	str	r3, [r7, #12]
 */
__STATIC_FORCEINLINE uint32_t __LDREXW(volatile uint32_t *addr)
{
    uint32_t result;

   __ASM volatile ("ldrex %0, %1" : "=r" (result) : "Q" (*addr) );
 8001086:	68fb      	ldr	r3, [r7, #12]
 8001088:	e853 3f00 	ldrex	r3, [r3]
 800108c:	60bb      	str	r3, [r7, #8]
   return(result);
 800108e:	68bb      	ldr	r3, [r7, #8]
 8001090:	f043 0320 	orr.w	r3, r3, #32
 8001094:	61fb      	str	r3, [r7, #28]
 8001096:	687b      	ldr	r3, [r7, #4]
 8001098:	330c      	adds	r3, #12
 800109a:	69fa      	ldr	r2, [r7, #28]
 800109c:	61ba      	str	r2, [r7, #24]
 800109e:	617b      	str	r3, [r7, #20]
 */
__STATIC_FORCEINLINE uint32_t __STREXW(uint32_t value, volatile uint32_t *addr)
{
   uint32_t result;

   __ASM volatile ("strex %0, %2, %1" : "=&r" (result), "=Q" (*addr) : "r" (value) );
 80010a0:	6979      	ldr	r1, [r7, #20]
 80010a2:	69ba      	ldr	r2, [r7, #24]
 80010a4:	e841 2300 	strex	r3, r2, [r1]
 80010a8:	613b      	str	r3, [r7, #16]
   return(result);
 80010aa:	693b      	ldr	r3, [r7, #16]
 80010ac:	2b00      	cmp	r3, #0
 80010ae:	bf14      	ite	ne
 80010b0:	2301      	movne	r3, #1
 80010b2:	2300      	moveq	r3, #0
 80010b4:	b2db      	uxtb	r3, r3
 80010b6:	2b00      	cmp	r3, #0
 80010b8:	d000      	beq.n	80010bc <LL_USART_EnableIT_RXNE+0x44>
 80010ba:	e7e1      	b.n	8001080 <LL_USART_EnableIT_RXNE+0x8>
}
 80010bc:	bf00      	nop
 80010be:	3724      	adds	r7, #36	; 0x24
 80010c0:	46bd      	mov	sp, r7
 80010c2:	bc80      	pop	{r7}
 80010c4:	4770      	bx	lr

080010c6 <LL_USART_EnableIT_ERROR>:
  * @rmtoll CR3          EIE           LL_USART_EnableIT_ERROR
  * @param  USARTx USART Instance
  * @retval None
  */
__STATIC_INLINE void LL_USART_EnableIT_ERROR(USART_TypeDef *USARTx)
{
 80010c6:	b480      	push	{r7}
 80010c8:	b089      	sub	sp, #36	; 0x24
 80010ca:	af00      	add	r7, sp, #0
 80010cc:	6078      	str	r0, [r7, #4]
  ATOMIC_SET_BIT(USARTx->CR3, USART_CR3_EIE);
 80010ce:	687b      	ldr	r3, [r7, #4]
 80010d0:	3314      	adds	r3, #20
 80010d2:	60fb      	str	r3, [r7, #12]
   __ASM volatile ("ldrex %0, %1" : "=r" (result) : "Q" (*addr) );
 80010d4:	68fb      	ldr	r3, [r7, #12]
 80010d6:	e853 3f00 	ldrex	r3, [r3]
 80010da:	60bb      	str	r3, [r7, #8]
   return(result);
 80010dc:	68bb      	ldr	r3, [r7, #8]
 80010de:	f043 0301 	orr.w	r3, r3, #1
 80010e2:	61fb      	str	r3, [r7, #28]
 80010e4:	687b      	ldr	r3, [r7, #4]
 80010e6:	3314      	adds	r3, #20
 80010e8:	69fa      	ldr	r2, [r7, #28]
 80010ea:	61ba      	str	r2, [r7, #24]
 80010ec:	617b      	str	r3, [r7, #20]
   __ASM volatile ("strex %0, %2, %1" : "=&r" (result), "=Q" (*addr) : "r" (value) );
 80010ee:	6979      	ldr	r1, [r7, #20]
 80010f0:	69ba      	ldr	r2, [r7, #24]
 80010f2:	e841 2300 	strex	r3, r2, [r1]
 80010f6:	613b      	str	r3, [r7, #16]
   return(result);
 80010f8:	693b      	ldr	r3, [r7, #16]
 80010fa:	2b00      	cmp	r3, #0
 80010fc:	bf14      	ite	ne
 80010fe:	2301      	movne	r3, #1
 8001100:	2300      	moveq	r3, #0
 8001102:	b2db      	uxtb	r3, r3
 8001104:	2b00      	cmp	r3, #0
 8001106:	d000      	beq.n	800110a <LL_USART_EnableIT_ERROR+0x44>
 8001108:	e7e1      	b.n	80010ce <LL_USART_EnableIT_ERROR+0x8>
}
 800110a:	bf00      	nop
 800110c:	3724      	adds	r7, #36	; 0x24
 800110e:	46bd      	mov	sp, r7
 8001110:	bc80      	pop	{r7}
 8001112:	4770      	bx	lr

08001114 <LL_GPIO_AF_Remap_SWJ_NOJTAG>:
  * @rmtoll MAPR          SWJ_CFG           LL_GPIO_AF_Remap_SWJ_NOJTAG
  * @note  NOJTAG: JTAG-DP Disabled and SW-DP Enabled
  * @retval None
  */
__STATIC_INLINE void LL_GPIO_AF_Remap_SWJ_NOJTAG(void)
{
 8001114:	b480      	push	{r7}
 8001116:	af00      	add	r7, sp, #0
  MODIFY_REG(AFIO->MAPR, AFIO_MAPR_SWJ_CFG, AFIO_MAPR_SWJ_CFG_JTAGDISABLE);
 8001118:	4b05      	ldr	r3, [pc, #20]	; (8001130 <LL_GPIO_AF_Remap_SWJ_NOJTAG+0x1c>)
 800111a:	685b      	ldr	r3, [r3, #4]
 800111c:	f023 63e0 	bic.w	r3, r3, #117440512	; 0x7000000
 8001120:	4a03      	ldr	r2, [pc, #12]	; (8001130 <LL_GPIO_AF_Remap_SWJ_NOJTAG+0x1c>)
 8001122:	f043 7300 	orr.w	r3, r3, #33554432	; 0x2000000
 8001126:	6053      	str	r3, [r2, #4]
}
 8001128:	bf00      	nop
 800112a:	46bd      	mov	sp, r7
 800112c:	bc80      	pop	{r7}
 800112e:	4770      	bx	lr
 8001130:	40010000 	.word	0x40010000

08001134 <_ZN7GlobalsC1Ev>:
#ifndef SRC_GLOBALS_H_
#define SRC_GLOBALS_H_

#include "sbus.h"

class Globals {
 8001134:	b580      	push	{r7, lr}
 8001136:	b082      	sub	sp, #8
 8001138:	af00      	add	r7, sp, #0
 800113a:	6078      	str	r0, [r7, #4]
 800113c:	687b      	ldr	r3, [r7, #4]
 800113e:	2200      	movs	r2, #0
 8001140:	801a      	strh	r2, [r3, #0]
 8001142:	687b      	ldr	r3, [r7, #4]
 8001144:	2200      	movs	r2, #0
 8001146:	605a      	str	r2, [r3, #4]
 8001148:	687b      	ldr	r3, [r7, #4]
 800114a:	3308      	adds	r3, #8
 800114c:	4618      	mov	r0, r3
 800114e:	f000 f911 	bl	8001374 <_ZN3def4SbusC1Ev>
 8001152:	687b      	ldr	r3, [r7, #4]
 8001154:	4618      	mov	r0, r3
 8001156:	3708      	adds	r7, #8
 8001158:	46bd      	mov	sp, r7
 800115a:	bd80      	pop	{r7, pc}

0800115c <main>:
/**
  * @brief  The application entry point.
  * @retval int
  */
int main(void)
{
 800115c:	b580      	push	{r7, lr}
 800115e:	af00      	add	r7, sp, #0
  /* USER CODE END 1 */

  /* MCU Configuration--------------------------------------------------------*/

  /* Reset of all peripherals, Initializes the Flash interface and the Systick. */
  LL_APB2_GRP1_EnableClock(LL_APB2_GRP1_PERIPH_AFIO);
 8001160:	2001      	movs	r0, #1
 8001162:	f7ff ff51 	bl	8001008 <LL_APB2_GRP1_EnableClock>
  LL_APB1_GRP1_EnableClock(LL_APB1_GRP1_PERIPH_PWR);
 8001166:	f04f 5080 	mov.w	r0, #268435456	; 0x10000000
 800116a:	f7ff ff35 	bl	8000fd8 <LL_APB1_GRP1_EnableClock>

  /* System interrupt init*/
  NVIC_SetPriorityGrouping(NVIC_PRIORITYGROUP_4);
 800116e:	2003      	movs	r0, #3
 8001170:	f7ff fdd0 	bl	8000d14 <__NVIC_SetPriorityGrouping>

  /* SysTick_IRQn interrupt configuration */
  NVIC_SetPriority(SysTick_IRQn, NVIC_EncodePriority(NVIC_GetPriorityGrouping(),15, 0));
 8001174:	f7ff fdf2 	bl	8000d5c <__NVIC_GetPriorityGrouping>
 8001178:	4603      	mov	r3, r0
 800117a:	2200      	movs	r2, #0
 800117c:	210f      	movs	r1, #15
 800117e:	4618      	mov	r0, r3
 8001180:	f7ff fe24 	bl	8000dcc <NVIC_EncodePriority>
 8001184:	4603      	mov	r3, r0
 8001186:	4619      	mov	r1, r3
 8001188:	f04f 30ff 	mov.w	r0, #4294967295	; 0xffffffff
 800118c:	f7ff fdf4 	bl	8000d78 <__NVIC_SetPriority>

  /** NOJTAG: JTAG-DP Disabled and SW-DP Enabled
  */
  LL_GPIO_AF_Remap_SWJ_NOJTAG();
 8001190:	f7ff ffc0 	bl	8001114 <LL_GPIO_AF_Remap_SWJ_NOJTAG>
  /* USER CODE BEGIN Init */

  /* USER CODE END Init */

  /* Configure the system clock */
  SystemClock_Config();
 8001194:	f000 f822 	bl	80011dc <_Z18SystemClock_Configv>

  /* USER CODE BEGIN SysInit */

  SystemCoreClockUpdate();
 8001198:	f000 fd1a 	bl	8001bd0 <SystemCoreClockUpdate>
  SysTick_Config(SystemCoreClock/1000);
 800119c:	4b0c      	ldr	r3, [pc, #48]	; (80011d0 <main+0x74>)
 800119e:	681b      	ldr	r3, [r3, #0]
 80011a0:	4a0c      	ldr	r2, [pc, #48]	; (80011d4 <main+0x78>)
 80011a2:	fba2 2303 	umull	r2, r3, r2, r3
 80011a6:	099b      	lsrs	r3, r3, #6
 80011a8:	4618      	mov	r0, r3
 80011aa:	f7ff fe3f 	bl	8000e2c <SysTick_Config>

  /* USER CODE END SysInit */

  /* Initialize all configured peripherals */
  MX_GPIO_Init();
 80011ae:	f7ff fc49 	bl	8000a44 <MX_GPIO_Init>
  MX_DMA_Init();
 80011b2:	f7ff fc07 	bl	80009c4 <MX_DMA_Init>
  MX_USART1_UART_Init();
 80011b6:	f000 ff51 	bl	800205c <MX_USART1_UART_Init>
  MX_I2C1_Init();
 80011ba:	f7ff fd47 	bl	8000c4c <MX_I2C1_Init>
  MX_USART3_UART_Init();
 80011be:	f000 ffdd 	bl	800217c <MX_USART3_UART_Init>
  /* USER CODE BEGIN 2 */

  LL_USART_EnableIT_RXNE(USART1);
 80011c2:	4805      	ldr	r0, [pc, #20]	; (80011d8 <main+0x7c>)
 80011c4:	f7ff ff58 	bl	8001078 <LL_USART_EnableIT_RXNE>
  LL_USART_EnableIT_ERROR(USART1);
 80011c8:	4803      	ldr	r0, [pc, #12]	; (80011d8 <main+0x7c>)
 80011ca:	f7ff ff7c 	bl	80010c6 <LL_USART_EnableIT_ERROR>

  /* USER CODE END 2 */

  /* Infinite loop */
  /* USER CODE BEGIN WHILE */
  while (1)
 80011ce:	e7fe      	b.n	80011ce <main+0x72>
 80011d0:	20000000 	.word	0x20000000
 80011d4:	10624dd3 	.word	0x10624dd3
 80011d8:	40013800 	.word	0x40013800

080011dc <_Z18SystemClock_Configv>:
/**
  * @brief System Clock Configuration
  * @retval None
  */
void SystemClock_Config(void)
{
 80011dc:	b580      	push	{r7, lr}
 80011de:	af00      	add	r7, sp, #0
  LL_FLASH_SetLatency(LL_FLASH_LATENCY_2);
 80011e0:	2002      	movs	r0, #2
 80011e2:	f7ff ff29 	bl	8001038 <LL_FLASH_SetLatency>
  while(LL_FLASH_GetLatency()!= LL_FLASH_LATENCY_2)
 80011e6:	f7ff ff3b 	bl	8001060 <LL_FLASH_GetLatency>
 80011ea:	4603      	mov	r3, r0
 80011ec:	2b02      	cmp	r3, #2
 80011ee:	bf14      	ite	ne
 80011f0:	2301      	movne	r3, #1
 80011f2:	2300      	moveq	r3, #0
 80011f4:	b2db      	uxtb	r3, r3
 80011f6:	2b00      	cmp	r3, #0
 80011f8:	d000      	beq.n	80011fc <_Z18SystemClock_Configv+0x20>
 80011fa:	e7f4      	b.n	80011e6 <_Z18SystemClock_Configv+0xa>
  {
  }
  LL_RCC_HSE_Enable();
 80011fc:	f7ff fe38 	bl	8000e70 <LL_RCC_HSE_Enable>

   /* Wait till HSE is ready */
  while(LL_RCC_HSE_IsReady() != 1)
 8001200:	f7ff fe44 	bl	8000e8c <LL_RCC_HSE_IsReady>
 8001204:	4603      	mov	r3, r0
 8001206:	2b01      	cmp	r3, #1
 8001208:	bf14      	ite	ne
 800120a:	2301      	movne	r3, #1
 800120c:	2300      	moveq	r3, #0
 800120e:	b2db      	uxtb	r3, r3
 8001210:	2b00      	cmp	r3, #0
 8001212:	d000      	beq.n	8001216 <_Z18SystemClock_Configv+0x3a>
 8001214:	e7f4      	b.n	8001200 <_Z18SystemClock_Configv+0x24>
  {

  }
  LL_RCC_PLL_ConfigDomain_SYS(LL_RCC_PLLSOURCE_HSE_DIV_1, LL_RCC_PLL_MUL_9);
 8001216:	f44f 11e0 	mov.w	r1, #1835008	; 0x1c0000
 800121a:	f44f 3080 	mov.w	r0, #65536	; 0x10000
 800121e:	f7ff fec3 	bl	8000fa8 <LL_RCC_PLL_ConfigDomain_SYS>
  LL_RCC_PLL_Enable();
 8001222:	f7ff fea1 	bl	8000f68 <LL_RCC_PLL_Enable>

   /* Wait till PLL is ready */
  while(LL_RCC_PLL_IsReady() != 1)
 8001226:	f7ff fead 	bl	8000f84 <LL_RCC_PLL_IsReady>
 800122a:	4603      	mov	r3, r0
 800122c:	2b01      	cmp	r3, #1
 800122e:	bf14      	ite	ne
 8001230:	2301      	movne	r3, #1
 8001232:	2300      	moveq	r3, #0
 8001234:	b2db      	uxtb	r3, r3
 8001236:	2b00      	cmp	r3, #0
 8001238:	d000      	beq.n	800123c <_Z18SystemClock_Configv+0x60>
 800123a:	e7f4      	b.n	8001226 <_Z18SystemClock_Configv+0x4a>
  {

  }
  LL_RCC_SetAHBPrescaler(LL_RCC_SYSCLK_DIV_1);
 800123c:	2000      	movs	r0, #0
 800123e:	f7ff fe57 	bl	8000ef0 <LL_RCC_SetAHBPrescaler>
  LL_RCC_SetAPB1Prescaler(LL_RCC_APB1_DIV_2);
 8001242:	f44f 6080 	mov.w	r0, #1024	; 0x400
 8001246:	f7ff fe67 	bl	8000f18 <LL_RCC_SetAPB1Prescaler>
  LL_RCC_SetAPB2Prescaler(LL_RCC_APB2_DIV_1);
 800124a:	2000      	movs	r0, #0
 800124c:	f7ff fe78 	bl	8000f40 <LL_RCC_SetAPB2Prescaler>
  LL_RCC_SetSysClkSource(LL_RCC_SYS_CLKSOURCE_PLL);
 8001250:	2002      	movs	r0, #2
 8001252:	f7ff fe2d 	bl	8000eb0 <LL_RCC_SetSysClkSource>

   /* Wait till System clock is ready */
  while(LL_RCC_GetSysClkSource() != LL_RCC_SYS_CLKSOURCE_STATUS_PLL)
 8001256:	f7ff fe3f 	bl	8000ed8 <LL_RCC_GetSysClkSource>
 800125a:	4603      	mov	r3, r0
 800125c:	2b08      	cmp	r3, #8
 800125e:	bf14      	ite	ne
 8001260:	2301      	movne	r3, #1
 8001262:	2300      	moveq	r3, #0
 8001264:	b2db      	uxtb	r3, r3
 8001266:	2b00      	cmp	r3, #0
 8001268:	d000      	beq.n	800126c <_Z18SystemClock_Configv+0x90>
 800126a:	e7f4      	b.n	8001256 <_Z18SystemClock_Configv+0x7a>
  {

  }
  LL_Init1msTick(72000000);
 800126c:	4803      	ldr	r0, [pc, #12]	; (800127c <_Z18SystemClock_Configv+0xa0>)
 800126e:	f001 fcf9 	bl	8002c64 <LL_Init1msTick>
  LL_SetSystemCoreClock(72000000);
 8001272:	4802      	ldr	r0, [pc, #8]	; (800127c <_Z18SystemClock_Configv+0xa0>)
 8001274:	f001 fd04 	bl	8002c80 <LL_SetSystemCoreClock>
}
 8001278:	bf00      	nop
 800127a:	bd80      	pop	{r7, pc}
 800127c:	044aa200 	.word	0x044aa200

08001280 <IncrementSystemTick_Callback>:

/* USER CODE BEGIN 4 */

void IncrementSystemTick_Callback(void){
 8001280:	b480      	push	{r7}
 8001282:	af00      	add	r7, sp, #0
	G.millis++;
 8001284:	4b04      	ldr	r3, [pc, #16]	; (8001298 <IncrementSystemTick_Callback+0x18>)
 8001286:	685b      	ldr	r3, [r3, #4]
 8001288:	3301      	adds	r3, #1
 800128a:	4a03      	ldr	r2, [pc, #12]	; (8001298 <IncrementSystemTick_Callback+0x18>)
 800128c:	6053      	str	r3, [r2, #4]
	__NOP();
 800128e:	bf00      	nop
}
 8001290:	bf00      	nop
 8001292:	46bd      	mov	sp, r7
 8001294:	bc80      	pop	{r7}
 8001296:	4770      	bx	lr
 8001298:	20000084 	.word	0x20000084

0800129c <_ZN7GlobalsD1Ev>:
 800129c:	b580      	push	{r7, lr}
 800129e:	b082      	sub	sp, #8
 80012a0:	af00      	add	r7, sp, #0
 80012a2:	6078      	str	r0, [r7, #4]
 80012a4:	687b      	ldr	r3, [r7, #4]
 80012a6:	3308      	adds	r3, #8
 80012a8:	4618      	mov	r0, r3
 80012aa:	f000 f89d 	bl	80013e8 <_ZN3def4SbusD1Ev>
 80012ae:	687b      	ldr	r3, [r7, #4]
 80012b0:	4618      	mov	r0, r3
 80012b2:	3708      	adds	r7, #8
 80012b4:	46bd      	mov	sp, r7
 80012b6:	bd80      	pop	{r7, pc}

080012b8 <_Z41__static_initialization_and_destruction_0ii>:
  __disable_irq();
  while (1)
  {
  }
  /* USER CODE END Error_Handler_Debug */
}
 80012b8:	b580      	push	{r7, lr}
 80012ba:	b082      	sub	sp, #8
 80012bc:	af00      	add	r7, sp, #0
 80012be:	6078      	str	r0, [r7, #4]
 80012c0:	6039      	str	r1, [r7, #0]
 80012c2:	687b      	ldr	r3, [r7, #4]
 80012c4:	2b01      	cmp	r3, #1
 80012c6:	d115      	bne.n	80012f4 <_Z41__static_initialization_and_destruction_0ii+0x3c>
 80012c8:	683b      	ldr	r3, [r7, #0]
 80012ca:	f64f 72ff 	movw	r2, #65535	; 0xffff
 80012ce:	4293      	cmp	r3, r2
 80012d0:	d110      	bne.n	80012f4 <_Z41__static_initialization_and_destruction_0ii+0x3c>


};


inline Globals G;
 80012d2:	4b17      	ldr	r3, [pc, #92]	; (8001330 <_Z41__static_initialization_and_destruction_0ii+0x78>)
 80012d4:	681b      	ldr	r3, [r3, #0]
 80012d6:	3301      	adds	r3, #1
 80012d8:	4a15      	ldr	r2, [pc, #84]	; (8001330 <_Z41__static_initialization_and_destruction_0ii+0x78>)
 80012da:	6013      	str	r3, [r2, #0]
 80012dc:	4b14      	ldr	r3, [pc, #80]	; (8001330 <_Z41__static_initialization_and_destruction_0ii+0x78>)
 80012de:	681b      	ldr	r3, [r3, #0]
 80012e0:	2b01      	cmp	r3, #1
 80012e2:	bf0c      	ite	eq
 80012e4:	2301      	moveq	r3, #1
 80012e6:	2300      	movne	r3, #0
 80012e8:	b2db      	uxtb	r3, r3
 80012ea:	2b00      	cmp	r3, #0
 80012ec:	d002      	beq.n	80012f4 <_Z41__static_initialization_and_destruction_0ii+0x3c>
 80012ee:	4811      	ldr	r0, [pc, #68]	; (8001334 <_Z41__static_initialization_and_destruction_0ii+0x7c>)
 80012f0:	f7ff ff20 	bl	8001134 <_ZN7GlobalsC1Ev>
 80012f4:	687b      	ldr	r3, [r7, #4]
 80012f6:	2b00      	cmp	r3, #0
 80012f8:	d115      	bne.n	8001326 <_Z41__static_initialization_and_destruction_0ii+0x6e>
 80012fa:	683b      	ldr	r3, [r7, #0]
 80012fc:	f64f 72ff 	movw	r2, #65535	; 0xffff
 8001300:	4293      	cmp	r3, r2
 8001302:	d110      	bne.n	8001326 <_Z41__static_initialization_and_destruction_0ii+0x6e>
 8001304:	4b0a      	ldr	r3, [pc, #40]	; (8001330 <_Z41__static_initialization_and_destruction_0ii+0x78>)
 8001306:	681b      	ldr	r3, [r3, #0]
 8001308:	3b01      	subs	r3, #1
 800130a:	4a09      	ldr	r2, [pc, #36]	; (8001330 <_Z41__static_initialization_and_destruction_0ii+0x78>)
 800130c:	6013      	str	r3, [r2, #0]
 800130e:	4b08      	ldr	r3, [pc, #32]	; (8001330 <_Z41__static_initialization_and_destruction_0ii+0x78>)
 8001310:	681b      	ldr	r3, [r3, #0]
 8001312:	2b00      	cmp	r3, #0
 8001314:	bf0c      	ite	eq
 8001316:	2301      	moveq	r3, #1
 8001318:	2300      	movne	r3, #0
 800131a:	b2db      	uxtb	r3, r3
 800131c:	2b00      	cmp	r3, #0
 800131e:	d002      	beq.n	8001326 <_Z41__static_initialization_and_destruction_0ii+0x6e>
 8001320:	4804      	ldr	r0, [pc, #16]	; (8001334 <_Z41__static_initialization_and_destruction_0ii+0x7c>)
 8001322:	f7ff ffbb 	bl	800129c <_ZN7GlobalsD1Ev>
 8001326:	bf00      	nop
 8001328:	3708      	adds	r7, #8
 800132a:	46bd      	mov	sp, r7
 800132c:	bd80      	pop	{r7, pc}
 800132e:	bf00      	nop
 8001330:	200000f4 	.word	0x200000f4
 8001334:	20000084 	.word	0x20000084

08001338 <_GLOBAL__sub_I_lastTicks>:
 8001338:	b580      	push	{r7, lr}
 800133a:	af00      	add	r7, sp, #0
 800133c:	f64f 71ff 	movw	r1, #65535	; 0xffff
 8001340:	2001      	movs	r0, #1
 8001342:	f7ff ffb9 	bl	80012b8 <_Z41__static_initialization_and_destruction_0ii>
 8001346:	bd80      	pop	{r7, pc}

08001348 <_GLOBAL__sub_D_lastTicks>:
 8001348:	b580      	push	{r7, lr}
 800134a:	af00      	add	r7, sp, #0
 800134c:	f64f 71ff 	movw	r1, #65535	; 0xffff
 8001350:	2000      	movs	r0, #0
 8001352:	f7ff ffb1 	bl	80012b8 <_Z41__static_initialization_and_destruction_0ii>
 8001356:	bd80      	pop	{r7, pc}

08001358 <_ZN3def3def7ChannelaSERKj>:
			const unsigned int operator() ()
			{
				return value;
			}

			void operator=( const unsigned int& val )
 8001358:	b480      	push	{r7}
 800135a:	b083      	sub	sp, #12
 800135c:	af00      	add	r7, sp, #0
 800135e:	6078      	str	r0, [r7, #4]
 8001360:	6039      	str	r1, [r7, #0]
			{
				value = val;
 8001362:	683b      	ldr	r3, [r7, #0]
 8001364:	681a      	ldr	r2, [r3, #0]
 8001366:	687b      	ldr	r3, [r7, #4]
 8001368:	601a      	str	r2, [r3, #0]
			}
 800136a:	bf00      	nop
 800136c:	370c      	adds	r7, #12
 800136e:	46bd      	mov	sp, r7
 8001370:	bc80      	pop	{r7}
 8001372:	4770      	bx	lr

08001374 <_ZN3def4SbusC1Ev>:

#include <sbus.h>

using namespace def;

Sbus::Sbus() {
 8001374:	b4b0      	push	{r4, r5, r7}
 8001376:	b083      	sub	sp, #12
 8001378:	af00      	add	r7, sp, #0
 800137a:	6078      	str	r0, [r7, #4]
 800137c:	4a18      	ldr	r2, [pc, #96]	; (80013e0 <_ZN3def4SbusC1Ev+0x6c>)
 800137e:	687b      	ldr	r3, [r7, #4]
 8001380:	601a      	str	r2, [r3, #0]
 8001382:	687b      	ldr	r3, [r7, #4]
 8001384:	3304      	adds	r3, #4
 8001386:	2200      	movs	r2, #0
 8001388:	601a      	str	r2, [r3, #0]
 800138a:	605a      	str	r2, [r3, #4]
 800138c:	609a      	str	r2, [r3, #8]
 800138e:	60da      	str	r2, [r3, #12]
 8001390:	611a      	str	r2, [r3, #16]
 8001392:	615a      	str	r2, [r3, #20]
 8001394:	761a      	strb	r2, [r3, #24]
 8001396:	687b      	ldr	r3, [r7, #4]
 8001398:	2200      	movs	r2, #0
 800139a:	775a      	strb	r2, [r3, #29]
 800139c:	687b      	ldr	r3, [r7, #4]
 800139e:	2200      	movs	r2, #0
 80013a0:	779a      	strb	r2, [r3, #30]
 80013a2:	687b      	ldr	r3, [r7, #4]
 80013a4:	2201      	movs	r2, #1
 80013a6:	77da      	strb	r2, [r3, #31]
 80013a8:	687b      	ldr	r3, [r7, #4]
 80013aa:	2200      	movs	r2, #0
 80013ac:	621a      	str	r2, [r3, #32]
 80013ae:	687b      	ldr	r3, [r7, #4]
 80013b0:	2200      	movs	r2, #0
 80013b2:	625a      	str	r2, [r3, #36]	; 0x24
 80013b4:	687b      	ldr	r3, [r7, #4]
 80013b6:	4a0b      	ldr	r2, [pc, #44]	; (80013e4 <_ZN3def4SbusC1Ev+0x70>)
 80013b8:	f103 0428 	add.w	r4, r3, #40	; 0x28
 80013bc:	4615      	mov	r5, r2
 80013be:	cd0f      	ldmia	r5!, {r0, r1, r2, r3}
 80013c0:	c40f      	stmia	r4!, {r0, r1, r2, r3}
 80013c2:	cd0f      	ldmia	r5!, {r0, r1, r2, r3}
 80013c4:	c40f      	stmia	r4!, {r0, r1, r2, r3}
 80013c6:	cd0f      	ldmia	r5!, {r0, r1, r2, r3}
 80013c8:	c40f      	stmia	r4!, {r0, r1, r2, r3}
 80013ca:	e895 000f 	ldmia.w	r5, {r0, r1, r2, r3}
 80013ce:	e884 000f 	stmia.w	r4, {r0, r1, r2, r3}

	// TODO Auto-generated constructor stub

}
 80013d2:	687b      	ldr	r3, [r7, #4]
 80013d4:	4618      	mov	r0, r3
 80013d6:	370c      	adds	r7, #12
 80013d8:	46bd      	mov	sp, r7
 80013da:	bcb0      	pop	{r4, r5, r7}
 80013dc:	4770      	bx	lr
 80013de:	bf00      	nop
 80013e0:	08002e08 	.word	0x08002e08
 80013e4:	08002dc0 	.word	0x08002dc0

080013e8 <_ZN3def4SbusD1Ev>:

Sbus::~Sbus() {
 80013e8:	b480      	push	{r7}
 80013ea:	b083      	sub	sp, #12
 80013ec:	af00      	add	r7, sp, #0
 80013ee:	6078      	str	r0, [r7, #4]
 80013f0:	4a04      	ldr	r2, [pc, #16]	; (8001404 <_ZN3def4SbusD1Ev+0x1c>)
 80013f2:	687b      	ldr	r3, [r7, #4]
 80013f4:	601a      	str	r2, [r3, #0]
	// TODO Auto-generated destructor stub
}
 80013f6:	687b      	ldr	r3, [r7, #4]
 80013f8:	4618      	mov	r0, r3
 80013fa:	370c      	adds	r7, #12
 80013fc:	46bd      	mov	sp, r7
 80013fe:	bc80      	pop	{r7}
 8001400:	4770      	bx	lr
 8001402:	bf00      	nop
 8001404:	08002e08 	.word	0x08002e08

08001408 <_ZN3def4SbusD0Ev>:
Sbus::~Sbus() {
 8001408:	b580      	push	{r7, lr}
 800140a:	b082      	sub	sp, #8
 800140c:	af00      	add	r7, sp, #0
 800140e:	6078      	str	r0, [r7, #4]
}
 8001410:	6878      	ldr	r0, [r7, #4]
 8001412:	f7ff ffe9 	bl	80013e8 <_ZN3def4SbusD1Ev>
 8001416:	2168      	movs	r1, #104	; 0x68
 8001418:	6878      	ldr	r0, [r7, #4]
 800141a:	f001 fc3f 	bl	8002c9c <_ZdlPvj>
 800141e:	687b      	ldr	r3, [r7, #4]
 8001420:	4618      	mov	r0, r3
 8001422:	3708      	adds	r7, #8
 8001424:	46bd      	mov	sp, r7
 8001426:	bd80      	pop	{r7, pc}

08001428 <_ZN3def4Sbus8sbus2pwmERKj>:


const unsigned int Sbus::sbus2pwm( const unsigned int& sbus )
{
 8001428:	b580      	push	{r7, lr}
 800142a:	b084      	sub	sp, #16
 800142c:	af00      	add	r7, sp, #0
 800142e:	6078      	str	r0, [r7, #4]
 8001430:	6039      	str	r1, [r7, #0]
	const float a = 894.384;
 8001432:	4b13      	ldr	r3, [pc, #76]	; (8001480 <_ZN3def4Sbus8sbus2pwmERKj+0x58>)
 8001434:	60fb      	str	r3, [r7, #12]
	const float b = 0.610501;
 8001436:	4b13      	ldr	r3, [pc, #76]	; (8001484 <_ZN3def4Sbus8sbus2pwmERKj+0x5c>)
 8001438:	60bb      	str	r3, [r7, #8]

	// extra term is for proper rounding
	// otherwise it gets rounded down always
	return static_cast<unsigned int>( a + b*sbus + (0.5-(sbus<0)) );
 800143a:	683b      	ldr	r3, [r7, #0]
 800143c:	681b      	ldr	r3, [r3, #0]
 800143e:	4618      	mov	r0, r3
 8001440:	f7ff f9ca 	bl	80007d8 <__aeabi_ui2f>
 8001444:	4603      	mov	r3, r0
 8001446:	490f      	ldr	r1, [pc, #60]	; (8001484 <_ZN3def4Sbus8sbus2pwmERKj+0x5c>)
 8001448:	4618      	mov	r0, r3
 800144a:	f7fe fe7f 	bl	800014c <__aeabi_fmul>
 800144e:	4603      	mov	r3, r0
 8001450:	490b      	ldr	r1, [pc, #44]	; (8001480 <_ZN3def4Sbus8sbus2pwmERKj+0x58>)
 8001452:	4618      	mov	r0, r3
 8001454:	f7ff f910 	bl	8000678 <__addsf3>
 8001458:	4603      	mov	r3, r0
 800145a:	4618      	mov	r0, r3
 800145c:	f7ff f88e 	bl	800057c <__aeabi_f2d>
 8001460:	f04f 0200 	mov.w	r2, #0
 8001464:	4b08      	ldr	r3, [pc, #32]	; (8001488 <_ZN3def4Sbus8sbus2pwmERKj+0x60>)
 8001466:	f7fe ff2b 	bl	80002c0 <__adddf3>
 800146a:	4602      	mov	r2, r0
 800146c:	460b      	mov	r3, r1
 800146e:	4610      	mov	r0, r2
 8001470:	4619      	mov	r1, r3
 8001472:	f7ff f8db 	bl	800062c <__aeabi_d2uiz>
 8001476:	4603      	mov	r3, r0

}
 8001478:	4618      	mov	r0, r3
 800147a:	3710      	adds	r7, #16
 800147c:	46bd      	mov	sp, r7
 800147e:	bd80      	pop	{r7, pc}
 8001480:	445f9893 	.word	0x445f9893
 8001484:	3f1c49cb 	.word	0x3f1c49cb
 8001488:	3fe00000 	.word	0x3fe00000

0800148c <_ZN3def4Sbus14decodeChannelsEv>:

const bool Sbus::decodeChannels(){
 800148c:	b580      	push	{r7, lr}
 800148e:	b0a6      	sub	sp, #152	; 0x98
 8001490:	af00      	add	r7, sp, #0
 8001492:	6078      	str	r0, [r7, #4]
	//if ((buffer[23] >> 2) & 0x0001) {
	//	lost++;
	//	return false;
	//}

	Channel[0]  = sbus2pwm((buffer[1]    |buffer[2]<<8)                 & 0x07FF);
 8001494:	687b      	ldr	r3, [r7, #4]
 8001496:	795b      	ldrb	r3, [r3, #5]
 8001498:	461a      	mov	r2, r3
 800149a:	687b      	ldr	r3, [r7, #4]
 800149c:	799b      	ldrb	r3, [r3, #6]
 800149e:	021b      	lsls	r3, r3, #8
 80014a0:	4313      	orrs	r3, r2
 80014a2:	f3c3 030a 	ubfx	r3, r3, #0, #11
 80014a6:	60fb      	str	r3, [r7, #12]
 80014a8:	f107 030c 	add.w	r3, r7, #12
 80014ac:	4619      	mov	r1, r3
 80014ae:	6878      	ldr	r0, [r7, #4]
 80014b0:	f7ff ffba 	bl	8001428 <_ZN3def4Sbus8sbus2pwmERKj>
 80014b4:	4603      	mov	r3, r0
 80014b6:	60bb      	str	r3, [r7, #8]
 80014b8:	687b      	ldr	r3, [r7, #4]
 80014ba:	3328      	adds	r3, #40	; 0x28
 80014bc:	f107 0208 	add.w	r2, r7, #8
 80014c0:	4611      	mov	r1, r2
 80014c2:	4618      	mov	r0, r3
 80014c4:	f7ff ff48 	bl	8001358 <_ZN3def3def7ChannelaSERKj>
	Channel[1]  = sbus2pwm((buffer[2]>>3 |buffer[3]<<5)                 & 0x07FF);
 80014c8:	687b      	ldr	r3, [r7, #4]
 80014ca:	799b      	ldrb	r3, [r3, #6]
 80014cc:	08db      	lsrs	r3, r3, #3
 80014ce:	b2db      	uxtb	r3, r3
 80014d0:	461a      	mov	r2, r3
 80014d2:	687b      	ldr	r3, [r7, #4]
 80014d4:	79db      	ldrb	r3, [r3, #7]
 80014d6:	015b      	lsls	r3, r3, #5
 80014d8:	4313      	orrs	r3, r2
 80014da:	f3c3 030a 	ubfx	r3, r3, #0, #11
 80014de:	617b      	str	r3, [r7, #20]
 80014e0:	f107 0314 	add.w	r3, r7, #20
 80014e4:	4619      	mov	r1, r3
 80014e6:	6878      	ldr	r0, [r7, #4]
 80014e8:	f7ff ff9e 	bl	8001428 <_ZN3def4Sbus8sbus2pwmERKj>
 80014ec:	4603      	mov	r3, r0
 80014ee:	613b      	str	r3, [r7, #16]
 80014f0:	687b      	ldr	r3, [r7, #4]
 80014f2:	332c      	adds	r3, #44	; 0x2c
 80014f4:	f107 0210 	add.w	r2, r7, #16
 80014f8:	4611      	mov	r1, r2
 80014fa:	4618      	mov	r0, r3
 80014fc:	f7ff ff2c 	bl	8001358 <_ZN3def3def7ChannelaSERKj>
	Channel[2]  = sbus2pwm((buffer[3]>>6 |buffer[4]<<2 |buffer[5]<<10)  & 0x07FF);
 8001500:	687b      	ldr	r3, [r7, #4]
 8001502:	79db      	ldrb	r3, [r3, #7]
 8001504:	099b      	lsrs	r3, r3, #6
 8001506:	b2db      	uxtb	r3, r3
 8001508:	461a      	mov	r2, r3
 800150a:	687b      	ldr	r3, [r7, #4]
 800150c:	7a1b      	ldrb	r3, [r3, #8]
 800150e:	009b      	lsls	r3, r3, #2
 8001510:	431a      	orrs	r2, r3
 8001512:	687b      	ldr	r3, [r7, #4]
 8001514:	7a5b      	ldrb	r3, [r3, #9]
 8001516:	029b      	lsls	r3, r3, #10
 8001518:	4313      	orrs	r3, r2
 800151a:	f3c3 030a 	ubfx	r3, r3, #0, #11
 800151e:	61fb      	str	r3, [r7, #28]
 8001520:	f107 031c 	add.w	r3, r7, #28
 8001524:	4619      	mov	r1, r3
 8001526:	6878      	ldr	r0, [r7, #4]
 8001528:	f7ff ff7e 	bl	8001428 <_ZN3def4Sbus8sbus2pwmERKj>
 800152c:	4603      	mov	r3, r0
 800152e:	61bb      	str	r3, [r7, #24]
 8001530:	687b      	ldr	r3, [r7, #4]
 8001532:	3330      	adds	r3, #48	; 0x30
 8001534:	f107 0218 	add.w	r2, r7, #24
 8001538:	4611      	mov	r1, r2
 800153a:	4618      	mov	r0, r3
 800153c:	f7ff ff0c 	bl	8001358 <_ZN3def3def7ChannelaSERKj>
	Channel[3]  = sbus2pwm((buffer[5]>>1 |buffer[6]<<7)                 & 0x07FF);
 8001540:	687b      	ldr	r3, [r7, #4]
 8001542:	7a5b      	ldrb	r3, [r3, #9]
 8001544:	085b      	lsrs	r3, r3, #1
 8001546:	b2db      	uxtb	r3, r3
 8001548:	461a      	mov	r2, r3
 800154a:	687b      	ldr	r3, [r7, #4]
 800154c:	7a9b      	ldrb	r3, [r3, #10]
 800154e:	01db      	lsls	r3, r3, #7
 8001550:	4313      	orrs	r3, r2
 8001552:	f3c3 030a 	ubfx	r3, r3, #0, #11
 8001556:	627b      	str	r3, [r7, #36]	; 0x24
 8001558:	f107 0324 	add.w	r3, r7, #36	; 0x24
 800155c:	4619      	mov	r1, r3
 800155e:	6878      	ldr	r0, [r7, #4]
 8001560:	f7ff ff62 	bl	8001428 <_ZN3def4Sbus8sbus2pwmERKj>
 8001564:	4603      	mov	r3, r0
 8001566:	623b      	str	r3, [r7, #32]
 8001568:	687b      	ldr	r3, [r7, #4]
 800156a:	3334      	adds	r3, #52	; 0x34
 800156c:	f107 0220 	add.w	r2, r7, #32
 8001570:	4611      	mov	r1, r2
 8001572:	4618      	mov	r0, r3
 8001574:	f7ff fef0 	bl	8001358 <_ZN3def3def7ChannelaSERKj>
	Channel[4]  = sbus2pwm((buffer[6]>>4 |buffer[7]<<4)                 & 0x07FF);
 8001578:	687b      	ldr	r3, [r7, #4]
 800157a:	7a9b      	ldrb	r3, [r3, #10]
 800157c:	091b      	lsrs	r3, r3, #4
 800157e:	b2db      	uxtb	r3, r3
 8001580:	461a      	mov	r2, r3
 8001582:	687b      	ldr	r3, [r7, #4]
 8001584:	7adb      	ldrb	r3, [r3, #11]
 8001586:	011b      	lsls	r3, r3, #4
 8001588:	4313      	orrs	r3, r2
 800158a:	f3c3 030a 	ubfx	r3, r3, #0, #11
 800158e:	62fb      	str	r3, [r7, #44]	; 0x2c
 8001590:	f107 032c 	add.w	r3, r7, #44	; 0x2c
 8001594:	4619      	mov	r1, r3
 8001596:	6878      	ldr	r0, [r7, #4]
 8001598:	f7ff ff46 	bl	8001428 <_ZN3def4Sbus8sbus2pwmERKj>
 800159c:	4603      	mov	r3, r0
 800159e:	62bb      	str	r3, [r7, #40]	; 0x28
 80015a0:	687b      	ldr	r3, [r7, #4]
 80015a2:	3338      	adds	r3, #56	; 0x38
 80015a4:	f107 0228 	add.w	r2, r7, #40	; 0x28
 80015a8:	4611      	mov	r1, r2
 80015aa:	4618      	mov	r0, r3
 80015ac:	f7ff fed4 	bl	8001358 <_ZN3def3def7ChannelaSERKj>
	Channel[5]  = sbus2pwm((buffer[7]>>7 |buffer[8]<<1 |buffer[9]<<9)   & 0x07FF);
 80015b0:	687b      	ldr	r3, [r7, #4]
 80015b2:	7adb      	ldrb	r3, [r3, #11]
 80015b4:	09db      	lsrs	r3, r3, #7
 80015b6:	b2db      	uxtb	r3, r3
 80015b8:	461a      	mov	r2, r3
 80015ba:	687b      	ldr	r3, [r7, #4]
 80015bc:	7b1b      	ldrb	r3, [r3, #12]
 80015be:	005b      	lsls	r3, r3, #1
 80015c0:	431a      	orrs	r2, r3
 80015c2:	687b      	ldr	r3, [r7, #4]
 80015c4:	7b5b      	ldrb	r3, [r3, #13]
 80015c6:	025b      	lsls	r3, r3, #9
 80015c8:	4313      	orrs	r3, r2
 80015ca:	f3c3 030a 	ubfx	r3, r3, #0, #11
 80015ce:	637b      	str	r3, [r7, #52]	; 0x34
 80015d0:	f107 0334 	add.w	r3, r7, #52	; 0x34
 80015d4:	4619      	mov	r1, r3
 80015d6:	6878      	ldr	r0, [r7, #4]
 80015d8:	f7ff ff26 	bl	8001428 <_ZN3def4Sbus8sbus2pwmERKj>
 80015dc:	4603      	mov	r3, r0
 80015de:	633b      	str	r3, [r7, #48]	; 0x30
 80015e0:	687b      	ldr	r3, [r7, #4]
 80015e2:	333c      	adds	r3, #60	; 0x3c
 80015e4:	f107 0230 	add.w	r2, r7, #48	; 0x30
 80015e8:	4611      	mov	r1, r2
 80015ea:	4618      	mov	r0, r3
 80015ec:	f7ff feb4 	bl	8001358 <_ZN3def3def7ChannelaSERKj>
	Channel[6]  = sbus2pwm((buffer[9]>>2 |buffer[10]<<6)                & 0x07FF);
 80015f0:	687b      	ldr	r3, [r7, #4]
 80015f2:	7b5b      	ldrb	r3, [r3, #13]
 80015f4:	089b      	lsrs	r3, r3, #2
 80015f6:	b2db      	uxtb	r3, r3
 80015f8:	461a      	mov	r2, r3
 80015fa:	687b      	ldr	r3, [r7, #4]
 80015fc:	7b9b      	ldrb	r3, [r3, #14]
 80015fe:	019b      	lsls	r3, r3, #6
 8001600:	4313      	orrs	r3, r2
 8001602:	f3c3 030a 	ubfx	r3, r3, #0, #11
 8001606:	63fb      	str	r3, [r7, #60]	; 0x3c
 8001608:	f107 033c 	add.w	r3, r7, #60	; 0x3c
 800160c:	4619      	mov	r1, r3
 800160e:	6878      	ldr	r0, [r7, #4]
 8001610:	f7ff ff0a 	bl	8001428 <_ZN3def4Sbus8sbus2pwmERKj>
 8001614:	4603      	mov	r3, r0
 8001616:	63bb      	str	r3, [r7, #56]	; 0x38
 8001618:	687b      	ldr	r3, [r7, #4]
 800161a:	3340      	adds	r3, #64	; 0x40
 800161c:	f107 0238 	add.w	r2, r7, #56	; 0x38
 8001620:	4611      	mov	r1, r2
 8001622:	4618      	mov	r0, r3
 8001624:	f7ff fe98 	bl	8001358 <_ZN3def3def7ChannelaSERKj>
	Channel[7]  = sbus2pwm((buffer[10]>>5|buffer[11]<<3)                & 0x07FF);
 8001628:	687b      	ldr	r3, [r7, #4]
 800162a:	7b9b      	ldrb	r3, [r3, #14]
 800162c:	095b      	lsrs	r3, r3, #5
 800162e:	b2db      	uxtb	r3, r3
 8001630:	461a      	mov	r2, r3
 8001632:	687b      	ldr	r3, [r7, #4]
 8001634:	7bdb      	ldrb	r3, [r3, #15]
 8001636:	00db      	lsls	r3, r3, #3
 8001638:	4313      	orrs	r3, r2
 800163a:	f3c3 030a 	ubfx	r3, r3, #0, #11
 800163e:	647b      	str	r3, [r7, #68]	; 0x44
 8001640:	f107 0344 	add.w	r3, r7, #68	; 0x44
 8001644:	4619      	mov	r1, r3
 8001646:	6878      	ldr	r0, [r7, #4]
 8001648:	f7ff feee 	bl	8001428 <_ZN3def4Sbus8sbus2pwmERKj>
 800164c:	4603      	mov	r3, r0
 800164e:	643b      	str	r3, [r7, #64]	; 0x40
 8001650:	687b      	ldr	r3, [r7, #4]
 8001652:	3344      	adds	r3, #68	; 0x44
 8001654:	f107 0240 	add.w	r2, r7, #64	; 0x40
 8001658:	4611      	mov	r1, r2
 800165a:	4618      	mov	r0, r3
 800165c:	f7ff fe7c 	bl	8001358 <_ZN3def3def7ChannelaSERKj>
	Channel[8]  = sbus2pwm((buffer[12]   |buffer[13]<<8)                & 0x07FF);
 8001660:	687b      	ldr	r3, [r7, #4]
 8001662:	7c1b      	ldrb	r3, [r3, #16]
 8001664:	461a      	mov	r2, r3
 8001666:	687b      	ldr	r3, [r7, #4]
 8001668:	7c5b      	ldrb	r3, [r3, #17]
 800166a:	021b      	lsls	r3, r3, #8
 800166c:	4313      	orrs	r3, r2
 800166e:	f3c3 030a 	ubfx	r3, r3, #0, #11
 8001672:	64fb      	str	r3, [r7, #76]	; 0x4c
 8001674:	f107 034c 	add.w	r3, r7, #76	; 0x4c
 8001678:	4619      	mov	r1, r3
 800167a:	6878      	ldr	r0, [r7, #4]
 800167c:	f7ff fed4 	bl	8001428 <_ZN3def4Sbus8sbus2pwmERKj>
 8001680:	4603      	mov	r3, r0
 8001682:	64bb      	str	r3, [r7, #72]	; 0x48
 8001684:	687b      	ldr	r3, [r7, #4]
 8001686:	3348      	adds	r3, #72	; 0x48
 8001688:	f107 0248 	add.w	r2, r7, #72	; 0x48
 800168c:	4611      	mov	r1, r2
 800168e:	4618      	mov	r0, r3
 8001690:	f7ff fe62 	bl	8001358 <_ZN3def3def7ChannelaSERKj>
	Channel[9]  = sbus2pwm((buffer[13]>>3|buffer[14]<<5)                & 0x07FF);
 8001694:	687b      	ldr	r3, [r7, #4]
 8001696:	7c5b      	ldrb	r3, [r3, #17]
 8001698:	08db      	lsrs	r3, r3, #3
 800169a:	b2db      	uxtb	r3, r3
 800169c:	461a      	mov	r2, r3
 800169e:	687b      	ldr	r3, [r7, #4]
 80016a0:	7c9b      	ldrb	r3, [r3, #18]
 80016a2:	015b      	lsls	r3, r3, #5
 80016a4:	4313      	orrs	r3, r2
 80016a6:	f3c3 030a 	ubfx	r3, r3, #0, #11
 80016aa:	657b      	str	r3, [r7, #84]	; 0x54
 80016ac:	f107 0354 	add.w	r3, r7, #84	; 0x54
 80016b0:	4619      	mov	r1, r3
 80016b2:	6878      	ldr	r0, [r7, #4]
 80016b4:	f7ff feb8 	bl	8001428 <_ZN3def4Sbus8sbus2pwmERKj>
 80016b8:	4603      	mov	r3, r0
 80016ba:	653b      	str	r3, [r7, #80]	; 0x50
 80016bc:	687b      	ldr	r3, [r7, #4]
 80016be:	334c      	adds	r3, #76	; 0x4c
 80016c0:	f107 0250 	add.w	r2, r7, #80	; 0x50
 80016c4:	4611      	mov	r1, r2
 80016c6:	4618      	mov	r0, r3
 80016c8:	f7ff fe46 	bl	8001358 <_ZN3def3def7ChannelaSERKj>
	Channel[10] = sbus2pwm((buffer[14]>>6|buffer[15]<<2|buffer[16]<<10) & 0x07FF);
 80016cc:	687b      	ldr	r3, [r7, #4]
 80016ce:	7c9b      	ldrb	r3, [r3, #18]
 80016d0:	099b      	lsrs	r3, r3, #6
 80016d2:	b2db      	uxtb	r3, r3
 80016d4:	461a      	mov	r2, r3
 80016d6:	687b      	ldr	r3, [r7, #4]
 80016d8:	7cdb      	ldrb	r3, [r3, #19]
 80016da:	009b      	lsls	r3, r3, #2
 80016dc:	431a      	orrs	r2, r3
 80016de:	687b      	ldr	r3, [r7, #4]
 80016e0:	7d1b      	ldrb	r3, [r3, #20]
 80016e2:	029b      	lsls	r3, r3, #10
 80016e4:	4313      	orrs	r3, r2
 80016e6:	f3c3 030a 	ubfx	r3, r3, #0, #11
 80016ea:	65fb      	str	r3, [r7, #92]	; 0x5c
 80016ec:	f107 035c 	add.w	r3, r7, #92	; 0x5c
 80016f0:	4619      	mov	r1, r3
 80016f2:	6878      	ldr	r0, [r7, #4]
 80016f4:	f7ff fe98 	bl	8001428 <_ZN3def4Sbus8sbus2pwmERKj>
 80016f8:	4603      	mov	r3, r0
 80016fa:	65bb      	str	r3, [r7, #88]	; 0x58
 80016fc:	687b      	ldr	r3, [r7, #4]
 80016fe:	3350      	adds	r3, #80	; 0x50
 8001700:	f107 0258 	add.w	r2, r7, #88	; 0x58
 8001704:	4611      	mov	r1, r2
 8001706:	4618      	mov	r0, r3
 8001708:	f7ff fe26 	bl	8001358 <_ZN3def3def7ChannelaSERKj>
	Channel[11] = sbus2pwm((buffer[16]>>1|buffer[17]<<7)                & 0x07FF);
 800170c:	687b      	ldr	r3, [r7, #4]
 800170e:	7d1b      	ldrb	r3, [r3, #20]
 8001710:	085b      	lsrs	r3, r3, #1
 8001712:	b2db      	uxtb	r3, r3
 8001714:	461a      	mov	r2, r3
 8001716:	687b      	ldr	r3, [r7, #4]
 8001718:	7d5b      	ldrb	r3, [r3, #21]
 800171a:	01db      	lsls	r3, r3, #7
 800171c:	4313      	orrs	r3, r2
 800171e:	f3c3 030a 	ubfx	r3, r3, #0, #11
 8001722:	667b      	str	r3, [r7, #100]	; 0x64
 8001724:	f107 0364 	add.w	r3, r7, #100	; 0x64
 8001728:	4619      	mov	r1, r3
 800172a:	6878      	ldr	r0, [r7, #4]
 800172c:	f7ff fe7c 	bl	8001428 <_ZN3def4Sbus8sbus2pwmERKj>
 8001730:	4603      	mov	r3, r0
 8001732:	663b      	str	r3, [r7, #96]	; 0x60
 8001734:	687b      	ldr	r3, [r7, #4]
 8001736:	3354      	adds	r3, #84	; 0x54
 8001738:	f107 0260 	add.w	r2, r7, #96	; 0x60
 800173c:	4611      	mov	r1, r2
 800173e:	4618      	mov	r0, r3
 8001740:	f7ff fe0a 	bl	8001358 <_ZN3def3def7ChannelaSERKj>
	Channel[12] = sbus2pwm((buffer[17]>>4|buffer[18]<<4)                & 0x07FF);
 8001744:	687b      	ldr	r3, [r7, #4]
 8001746:	7d5b      	ldrb	r3, [r3, #21]
 8001748:	091b      	lsrs	r3, r3, #4
 800174a:	b2db      	uxtb	r3, r3
 800174c:	461a      	mov	r2, r3
 800174e:	687b      	ldr	r3, [r7, #4]
 8001750:	7d9b      	ldrb	r3, [r3, #22]
 8001752:	011b      	lsls	r3, r3, #4
 8001754:	4313      	orrs	r3, r2
 8001756:	f3c3 030a 	ubfx	r3, r3, #0, #11
 800175a:	66fb      	str	r3, [r7, #108]	; 0x6c
 800175c:	f107 036c 	add.w	r3, r7, #108	; 0x6c
 8001760:	4619      	mov	r1, r3
 8001762:	6878      	ldr	r0, [r7, #4]
 8001764:	f7ff fe60 	bl	8001428 <_ZN3def4Sbus8sbus2pwmERKj>
 8001768:	4603      	mov	r3, r0
 800176a:	66bb      	str	r3, [r7, #104]	; 0x68
 800176c:	687b      	ldr	r3, [r7, #4]
 800176e:	3358      	adds	r3, #88	; 0x58
 8001770:	f107 0268 	add.w	r2, r7, #104	; 0x68
 8001774:	4611      	mov	r1, r2
 8001776:	4618      	mov	r0, r3
 8001778:	f7ff fdee 	bl	8001358 <_ZN3def3def7ChannelaSERKj>
	Channel[13] = sbus2pwm((buffer[18]>>7|buffer[19]<<1|buffer[20]<<9)  & 0x07FF);
 800177c:	687b      	ldr	r3, [r7, #4]
 800177e:	7d9b      	ldrb	r3, [r3, #22]
 8001780:	09db      	lsrs	r3, r3, #7
 8001782:	b2db      	uxtb	r3, r3
 8001784:	461a      	mov	r2, r3
 8001786:	687b      	ldr	r3, [r7, #4]
 8001788:	7ddb      	ldrb	r3, [r3, #23]
 800178a:	005b      	lsls	r3, r3, #1
 800178c:	431a      	orrs	r2, r3
 800178e:	687b      	ldr	r3, [r7, #4]
 8001790:	7e1b      	ldrb	r3, [r3, #24]
 8001792:	025b      	lsls	r3, r3, #9
 8001794:	4313      	orrs	r3, r2
 8001796:	f3c3 030a 	ubfx	r3, r3, #0, #11
 800179a:	677b      	str	r3, [r7, #116]	; 0x74
 800179c:	f107 0374 	add.w	r3, r7, #116	; 0x74
 80017a0:	4619      	mov	r1, r3
 80017a2:	6878      	ldr	r0, [r7, #4]
 80017a4:	f7ff fe40 	bl	8001428 <_ZN3def4Sbus8sbus2pwmERKj>
 80017a8:	4603      	mov	r3, r0
 80017aa:	673b      	str	r3, [r7, #112]	; 0x70
 80017ac:	687b      	ldr	r3, [r7, #4]
 80017ae:	335c      	adds	r3, #92	; 0x5c
 80017b0:	f107 0270 	add.w	r2, r7, #112	; 0x70
 80017b4:	4611      	mov	r1, r2
 80017b6:	4618      	mov	r0, r3
 80017b8:	f7ff fdce 	bl	8001358 <_ZN3def3def7ChannelaSERKj>
	Channel[14] = sbus2pwm((buffer[20]>>2|buffer[21]<<6)                & 0x07FF);
 80017bc:	687b      	ldr	r3, [r7, #4]
 80017be:	7e1b      	ldrb	r3, [r3, #24]
 80017c0:	089b      	lsrs	r3, r3, #2
 80017c2:	b2db      	uxtb	r3, r3
 80017c4:	461a      	mov	r2, r3
 80017c6:	687b      	ldr	r3, [r7, #4]
 80017c8:	7e5b      	ldrb	r3, [r3, #25]
 80017ca:	019b      	lsls	r3, r3, #6
 80017cc:	4313      	orrs	r3, r2
 80017ce:	f3c3 030a 	ubfx	r3, r3, #0, #11
 80017d2:	67fb      	str	r3, [r7, #124]	; 0x7c
 80017d4:	f107 037c 	add.w	r3, r7, #124	; 0x7c
 80017d8:	4619      	mov	r1, r3
 80017da:	6878      	ldr	r0, [r7, #4]
 80017dc:	f7ff fe24 	bl	8001428 <_ZN3def4Sbus8sbus2pwmERKj>
 80017e0:	4603      	mov	r3, r0
 80017e2:	67bb      	str	r3, [r7, #120]	; 0x78
 80017e4:	687b      	ldr	r3, [r7, #4]
 80017e6:	3360      	adds	r3, #96	; 0x60
 80017e8:	f107 0278 	add.w	r2, r7, #120	; 0x78
 80017ec:	4611      	mov	r1, r2
 80017ee:	4618      	mov	r0, r3
 80017f0:	f7ff fdb2 	bl	8001358 <_ZN3def3def7ChannelaSERKj>
	Channel[15] = sbus2pwm((buffer[21]>>5|buffer[22]<<3)                & 0x07FF);
 80017f4:	687b      	ldr	r3, [r7, #4]
 80017f6:	7e5b      	ldrb	r3, [r3, #25]
 80017f8:	095b      	lsrs	r3, r3, #5
 80017fa:	b2db      	uxtb	r3, r3
 80017fc:	461a      	mov	r2, r3
 80017fe:	687b      	ldr	r3, [r7, #4]
 8001800:	7e9b      	ldrb	r3, [r3, #26]
 8001802:	00db      	lsls	r3, r3, #3
 8001804:	4313      	orrs	r3, r2
 8001806:	f3c3 030a 	ubfx	r3, r3, #0, #11
 800180a:	f8c7 3084 	str.w	r3, [r7, #132]	; 0x84
 800180e:	f107 0384 	add.w	r3, r7, #132	; 0x84
 8001812:	4619      	mov	r1, r3
 8001814:	6878      	ldr	r0, [r7, #4]
 8001816:	f7ff fe07 	bl	8001428 <_ZN3def4Sbus8sbus2pwmERKj>
 800181a:	4603      	mov	r3, r0
 800181c:	f8c7 3080 	str.w	r3, [r7, #128]	; 0x80
 8001820:	687b      	ldr	r3, [r7, #4]
 8001822:	3364      	adds	r3, #100	; 0x64
 8001824:	f107 0280 	add.w	r2, r7, #128	; 0x80
 8001828:	4611      	mov	r1, r2
 800182a:	4618      	mov	r0, r3
 800182c:	f7ff fd94 	bl	8001358 <_ZN3def3def7ChannelaSERKj>

	( (buffer[23])      & 0x0001) ? Channel[16] = 2047: Channel[16] = 0;
 8001830:	687b      	ldr	r3, [r7, #4]
 8001832:	7edb      	ldrb	r3, [r3, #27]
 8001834:	f003 0301 	and.w	r3, r3, #1
 8001838:	2b00      	cmp	r3, #0
 800183a:	d00c      	beq.n	8001856 <_ZN3def4Sbus14decodeChannelsEv+0x3ca>
 800183c:	f240 73ff 	movw	r3, #2047	; 0x7ff
 8001840:	f8c7 3088 	str.w	r3, [r7, #136]	; 0x88
 8001844:	687b      	ldr	r3, [r7, #4]
 8001846:	3368      	adds	r3, #104	; 0x68
 8001848:	f107 0288 	add.w	r2, r7, #136	; 0x88
 800184c:	4611      	mov	r1, r2
 800184e:	4618      	mov	r0, r3
 8001850:	f7ff fd82 	bl	8001358 <_ZN3def3def7ChannelaSERKj>
 8001854:	e00a      	b.n	800186c <_ZN3def4Sbus14decodeChannelsEv+0x3e0>
 8001856:	2300      	movs	r3, #0
 8001858:	f8c7 308c 	str.w	r3, [r7, #140]	; 0x8c
 800185c:	687b      	ldr	r3, [r7, #4]
 800185e:	3368      	adds	r3, #104	; 0x68
 8001860:	f107 028c 	add.w	r2, r7, #140	; 0x8c
 8001864:	4611      	mov	r1, r2
 8001866:	4618      	mov	r0, r3
 8001868:	f7ff fd76 	bl	8001358 <_ZN3def3def7ChannelaSERKj>
	( (buffer[23] >> 1) & 0x0001) ? Channel[17] = 2047: Channel[17] = 0;
 800186c:	687b      	ldr	r3, [r7, #4]
 800186e:	7edb      	ldrb	r3, [r3, #27]
 8001870:	085b      	lsrs	r3, r3, #1
 8001872:	b2db      	uxtb	r3, r3
 8001874:	f003 0301 	and.w	r3, r3, #1
 8001878:	2b00      	cmp	r3, #0
 800187a:	d00c      	beq.n	8001896 <_ZN3def4Sbus14decodeChannelsEv+0x40a>
 800187c:	f240 73ff 	movw	r3, #2047	; 0x7ff
 8001880:	f8c7 3090 	str.w	r3, [r7, #144]	; 0x90
 8001884:	687b      	ldr	r3, [r7, #4]
 8001886:	336c      	adds	r3, #108	; 0x6c
 8001888:	f107 0290 	add.w	r2, r7, #144	; 0x90
 800188c:	4611      	mov	r1, r2
 800188e:	4618      	mov	r0, r3
 8001890:	f7ff fd62 	bl	8001358 <_ZN3def3def7ChannelaSERKj>
 8001894:	e00a      	b.n	80018ac <_ZN3def4Sbus14decodeChannelsEv+0x420>
 8001896:	2300      	movs	r3, #0
 8001898:	f8c7 3094 	str.w	r3, [r7, #148]	; 0x94
 800189c:	687b      	ldr	r3, [r7, #4]
 800189e:	336c      	adds	r3, #108	; 0x6c
 80018a0:	f107 0294 	add.w	r2, r7, #148	; 0x94
 80018a4:	4611      	mov	r1, r2
 80018a6:	4618      	mov	r0, r3
 80018a8:	f7ff fd56 	bl	8001358 <_ZN3def3def7ChannelaSERKj>

	if ((buffer[23] >> 3) & 0x0001) {
 80018ac:	687b      	ldr	r3, [r7, #4]
 80018ae:	7edb      	ldrb	r3, [r3, #27]
 80018b0:	08db      	lsrs	r3, r3, #3
 80018b2:	b2db      	uxtb	r3, r3
 80018b4:	f003 0301 	and.w	r3, r3, #1
 80018b8:	2b00      	cmp	r3, #0
 80018ba:	d003      	beq.n	80018c4 <_ZN3def4Sbus14decodeChannelsEv+0x438>
		failsafe = true;
 80018bc:	687b      	ldr	r3, [r7, #4]
 80018be:	2201      	movs	r2, #1
 80018c0:	77da      	strb	r2, [r3, #31]
 80018c2:	e002      	b.n	80018ca <_ZN3def4Sbus14decodeChannelsEv+0x43e>
	} else {
		failsafe = false;
 80018c4:	687b      	ldr	r3, [r7, #4]
 80018c6:	2200      	movs	r2, #0
 80018c8:	77da      	strb	r2, [r3, #31]
	}

	return true;
 80018ca:	2301      	movs	r3, #1

}
 80018cc:	4618      	mov	r0, r3
 80018ce:	3798      	adds	r7, #152	; 0x98
 80018d0:	46bd      	mov	sp, r7
 80018d2:	bd80      	pop	{r7, pc}

080018d4 <_ZN3def4Sbus13readSbusFrameERKh>:

void Sbus::readSbusFrame( const unsigned char& byte )
{
 80018d4:	b580      	push	{r7, lr}
 80018d6:	b082      	sub	sp, #8
 80018d8:	af00      	add	r7, sp, #0
 80018da:	6078      	str	r0, [r7, #4]
 80018dc:	6039      	str	r1, [r7, #0]
	if ( !reading && byte == START_BYTE ) {
 80018de:	687b      	ldr	r3, [r7, #4]
 80018e0:	7f9b      	ldrb	r3, [r3, #30]
 80018e2:	f083 0301 	eor.w	r3, r3, #1
 80018e6:	b2db      	uxtb	r3, r3
 80018e8:	2b00      	cmp	r3, #0
 80018ea:	d009      	beq.n	8001900 <_ZN3def4Sbus13readSbusFrameERKh+0x2c>
 80018ec:	683b      	ldr	r3, [r7, #0]
 80018ee:	781b      	ldrb	r3, [r3, #0]
 80018f0:	2b0f      	cmp	r3, #15
 80018f2:	d105      	bne.n	8001900 <_ZN3def4Sbus13readSbusFrameERKh+0x2c>
		reading=true;
 80018f4:	687b      	ldr	r3, [r7, #4]
 80018f6:	2201      	movs	r2, #1
 80018f8:	779a      	strb	r2, [r3, #30]
		i_buf=0;
 80018fa:	687b      	ldr	r3, [r7, #4]
 80018fc:	2200      	movs	r2, #0
 80018fe:	775a      	strb	r2, [r3, #29]
	}

	if ( reading )
 8001900:	687b      	ldr	r3, [r7, #4]
 8001902:	7f9b      	ldrb	r3, [r3, #30]
 8001904:	2b00      	cmp	r3, #0
 8001906:	d033      	beq.n	8001970 <_ZN3def4Sbus13readSbusFrameERKh+0x9c>
	{

		if( i_buf < SBUS_FRAME_LEN ) {
 8001908:	687b      	ldr	r3, [r7, #4]
 800190a:	7f5b      	ldrb	r3, [r3, #29]
 800190c:	2b18      	cmp	r3, #24
 800190e:	d821      	bhi.n	8001954 <_ZN3def4Sbus13readSbusFrameERKh+0x80>
			buffer[i_buf] = byte;
 8001910:	687b      	ldr	r3, [r7, #4]
 8001912:	7f5b      	ldrb	r3, [r3, #29]
 8001914:	4619      	mov	r1, r3
 8001916:	683b      	ldr	r3, [r7, #0]
 8001918:	781a      	ldrb	r2, [r3, #0]
 800191a:	687b      	ldr	r3, [r7, #4]
 800191c:	440b      	add	r3, r1
 800191e:	711a      	strb	r2, [r3, #4]

			if ( byte == END_BYTE && i_buf == SBUS_FRAME_LEN - 1 ) {
 8001920:	683b      	ldr	r3, [r7, #0]
 8001922:	781b      	ldrb	r3, [r3, #0]
 8001924:	2b00      	cmp	r3, #0
 8001926:	d11d      	bne.n	8001964 <_ZN3def4Sbus13readSbusFrameERKh+0x90>
 8001928:	687b      	ldr	r3, [r7, #4]
 800192a:	7f5b      	ldrb	r3, [r3, #29]
 800192c:	2b18      	cmp	r3, #24
 800192e:	d119      	bne.n	8001964 <_ZN3def4Sbus13readSbusFrameERKh+0x90>
				if ( !decodeChannels() ) lost++;
 8001930:	6878      	ldr	r0, [r7, #4]
 8001932:	f7ff fdab 	bl	800148c <_ZN3def4Sbus14decodeChannelsEv>
 8001936:	4603      	mov	r3, r0
 8001938:	f083 0301 	eor.w	r3, r3, #1
 800193c:	b2db      	uxtb	r3, r3
 800193e:	2b00      	cmp	r3, #0
 8001940:	d004      	beq.n	800194c <_ZN3def4Sbus13readSbusFrameERKh+0x78>
 8001942:	687b      	ldr	r3, [r7, #4]
 8001944:	6a1b      	ldr	r3, [r3, #32]
 8001946:	1c5a      	adds	r2, r3, #1
 8001948:	687b      	ldr	r3, [r7, #4]
 800194a:	621a      	str	r2, [r3, #32]
				reading=false;
 800194c:	687b      	ldr	r3, [r7, #4]
 800194e:	2200      	movs	r2, #0
 8001950:	779a      	strb	r2, [r3, #30]
 8001952:	e007      	b.n	8001964 <_ZN3def4Sbus13readSbusFrameERKh+0x90>
			}


		} else {
			reading=false;
 8001954:	687b      	ldr	r3, [r7, #4]
 8001956:	2200      	movs	r2, #0
 8001958:	779a      	strb	r2, [r3, #30]
			lost ++;
 800195a:	687b      	ldr	r3, [r7, #4]
 800195c:	6a1b      	ldr	r3, [r3, #32]
 800195e:	1c5a      	adds	r2, r3, #1
 8001960:	687b      	ldr	r3, [r7, #4]
 8001962:	621a      	str	r2, [r3, #32]
		}

		i_buf ++;
 8001964:	687b      	ldr	r3, [r7, #4]
 8001966:	7f5b      	ldrb	r3, [r3, #29]
 8001968:	3301      	adds	r3, #1
 800196a:	b2da      	uxtb	r2, r3
 800196c:	687b      	ldr	r3, [r7, #4]
 800196e:	775a      	strb	r2, [r3, #29]
	}



}
 8001970:	bf00      	nop
 8001972:	3708      	adds	r7, #8
 8001974:	46bd      	mov	sp, r7
 8001976:	bd80      	pop	{r7, pc}

08001978 <_ZN3def4Sbus19incrementUsartErrorEv>:


void Sbus::incrementUsartError(){
 8001978:	b480      	push	{r7}
 800197a:	b083      	sub	sp, #12
 800197c:	af00      	add	r7, sp, #0
 800197e:	6078      	str	r0, [r7, #4]
	usartErr++;
 8001980:	687b      	ldr	r3, [r7, #4]
 8001982:	6a5b      	ldr	r3, [r3, #36]	; 0x24
 8001984:	1c5a      	adds	r2, r3, #1
 8001986:	687b      	ldr	r3, [r7, #4]
 8001988:	625a      	str	r2, [r3, #36]	; 0x24
}
 800198a:	bf00      	nop
 800198c:	370c      	adds	r7, #12
 800198e:	46bd      	mov	sp, r7
 8001990:	bc80      	pop	{r7}
 8001992:	4770      	bx	lr

08001994 <LL_USART_IsActiveFlag_PE>:
{
 8001994:	b480      	push	{r7}
 8001996:	b083      	sub	sp, #12
 8001998:	af00      	add	r7, sp, #0
 800199a:	6078      	str	r0, [r7, #4]
  return (READ_BIT(USARTx->SR, USART_SR_PE) == (USART_SR_PE));
 800199c:	687b      	ldr	r3, [r7, #4]
 800199e:	681b      	ldr	r3, [r3, #0]
 80019a0:	f003 0301 	and.w	r3, r3, #1
 80019a4:	2b01      	cmp	r3, #1
 80019a6:	bf0c      	ite	eq
 80019a8:	2301      	moveq	r3, #1
 80019aa:	2300      	movne	r3, #0
 80019ac:	b2db      	uxtb	r3, r3
}
 80019ae:	4618      	mov	r0, r3
 80019b0:	370c      	adds	r7, #12
 80019b2:	46bd      	mov	sp, r7
 80019b4:	bc80      	pop	{r7}
 80019b6:	4770      	bx	lr

080019b8 <LL_USART_IsActiveFlag_NE>:
{
 80019b8:	b480      	push	{r7}
 80019ba:	b083      	sub	sp, #12
 80019bc:	af00      	add	r7, sp, #0
 80019be:	6078      	str	r0, [r7, #4]
  return (READ_BIT(USARTx->SR, USART_SR_NE) == (USART_SR_NE));
 80019c0:	687b      	ldr	r3, [r7, #4]
 80019c2:	681b      	ldr	r3, [r3, #0]
 80019c4:	f003 0304 	and.w	r3, r3, #4
 80019c8:	2b04      	cmp	r3, #4
 80019ca:	bf0c      	ite	eq
 80019cc:	2301      	moveq	r3, #1
 80019ce:	2300      	movne	r3, #0
 80019d0:	b2db      	uxtb	r3, r3
}
 80019d2:	4618      	mov	r0, r3
 80019d4:	370c      	adds	r7, #12
 80019d6:	46bd      	mov	sp, r7
 80019d8:	bc80      	pop	{r7}
 80019da:	4770      	bx	lr

080019dc <LL_USART_IsActiveFlag_ORE>:
{
 80019dc:	b480      	push	{r7}
 80019de:	b083      	sub	sp, #12
 80019e0:	af00      	add	r7, sp, #0
 80019e2:	6078      	str	r0, [r7, #4]
  return (READ_BIT(USARTx->SR, USART_SR_ORE) == (USART_SR_ORE));
 80019e4:	687b      	ldr	r3, [r7, #4]
 80019e6:	681b      	ldr	r3, [r3, #0]
 80019e8:	f003 0308 	and.w	r3, r3, #8
 80019ec:	2b08      	cmp	r3, #8
 80019ee:	bf0c      	ite	eq
 80019f0:	2301      	moveq	r3, #1
 80019f2:	2300      	movne	r3, #0
 80019f4:	b2db      	uxtb	r3, r3
}
 80019f6:	4618      	mov	r0, r3
 80019f8:	370c      	adds	r7, #12
 80019fa:	46bd      	mov	sp, r7
 80019fc:	bc80      	pop	{r7}
 80019fe:	4770      	bx	lr

08001a00 <LL_USART_IsActiveFlag_RXNE>:
{
 8001a00:	b480      	push	{r7}
 8001a02:	b083      	sub	sp, #12
 8001a04:	af00      	add	r7, sp, #0
 8001a06:	6078      	str	r0, [r7, #4]
  return (READ_BIT(USARTx->SR, USART_SR_RXNE) == (USART_SR_RXNE));
 8001a08:	687b      	ldr	r3, [r7, #4]
 8001a0a:	681b      	ldr	r3, [r3, #0]
 8001a0c:	f003 0320 	and.w	r3, r3, #32
 8001a10:	2b20      	cmp	r3, #32
 8001a12:	bf0c      	ite	eq
 8001a14:	2301      	moveq	r3, #1
 8001a16:	2300      	movne	r3, #0
 8001a18:	b2db      	uxtb	r3, r3
}
 8001a1a:	4618      	mov	r0, r3
 8001a1c:	370c      	adds	r7, #12
 8001a1e:	46bd      	mov	sp, r7
 8001a20:	bc80      	pop	{r7}
 8001a22:	4770      	bx	lr

08001a24 <LL_USART_IsActiveFlag_LBD>:
{
 8001a24:	b480      	push	{r7}
 8001a26:	b083      	sub	sp, #12
 8001a28:	af00      	add	r7, sp, #0
 8001a2a:	6078      	str	r0, [r7, #4]
  return (READ_BIT(USARTx->SR, USART_SR_LBD) == (USART_SR_LBD));
 8001a2c:	687b      	ldr	r3, [r7, #4]
 8001a2e:	681b      	ldr	r3, [r3, #0]
 8001a30:	f403 7380 	and.w	r3, r3, #256	; 0x100
 8001a34:	f5b3 7f80 	cmp.w	r3, #256	; 0x100
 8001a38:	bf0c      	ite	eq
 8001a3a:	2301      	moveq	r3, #1
 8001a3c:	2300      	movne	r3, #0
 8001a3e:	b2db      	uxtb	r3, r3
}
 8001a40:	4618      	mov	r0, r3
 8001a42:	370c      	adds	r7, #12
 8001a44:	46bd      	mov	sp, r7
 8001a46:	bc80      	pop	{r7}
 8001a48:	4770      	bx	lr

08001a4a <NMI_Handler>:
/******************************************************************************/
/**
  * @brief This function handles Non maskable interrupt.
  */
void NMI_Handler(void)
{
 8001a4a:	b480      	push	{r7}
 8001a4c:	af00      	add	r7, sp, #0
  /* USER CODE BEGIN NonMaskableInt_IRQn 0 */

  /* USER CODE END NonMaskableInt_IRQn 0 */
  /* USER CODE BEGIN NonMaskableInt_IRQn 1 */
  while (1)
 8001a4e:	e7fe      	b.n	8001a4e <NMI_Handler+0x4>

08001a50 <HardFault_Handler>:

/**
  * @brief This function handles Hard fault interrupt.
  */
void HardFault_Handler(void)
{
 8001a50:	b480      	push	{r7}
 8001a52:	af00      	add	r7, sp, #0
  /* USER CODE BEGIN HardFault_IRQn 0 */

  /* USER CODE END HardFault_IRQn 0 */
  while (1)
 8001a54:	e7fe      	b.n	8001a54 <HardFault_Handler+0x4>

08001a56 <MemManage_Handler>:

/**
  * @brief This function handles Memory management fault.
  */
void MemManage_Handler(void)
{
 8001a56:	b480      	push	{r7}
 8001a58:	af00      	add	r7, sp, #0
  /* USER CODE BEGIN MemoryManagement_IRQn 0 */

  /* USER CODE END MemoryManagement_IRQn 0 */
  while (1)
 8001a5a:	e7fe      	b.n	8001a5a <MemManage_Handler+0x4>

08001a5c <BusFault_Handler>:

/**
  * @brief This function handles Prefetch fault, memory access fault.
  */
void BusFault_Handler(void)
{
 8001a5c:	b480      	push	{r7}
 8001a5e:	af00      	add	r7, sp, #0
  /* USER CODE BEGIN BusFault_IRQn 0 */

  /* USER CODE END BusFault_IRQn 0 */
  while (1)
 8001a60:	e7fe      	b.n	8001a60 <BusFault_Handler+0x4>

08001a62 <UsageFault_Handler>:

/**
  * @brief This function handles Undefined instruction or illegal state.
  */
void UsageFault_Handler(void)
{
 8001a62:	b480      	push	{r7}
 8001a64:	af00      	add	r7, sp, #0
  /* USER CODE BEGIN UsageFault_IRQn 0 */

  /* USER CODE END UsageFault_IRQn 0 */
  while (1)
 8001a66:	e7fe      	b.n	8001a66 <UsageFault_Handler+0x4>

08001a68 <SVC_Handler>:

/**
  * @brief This function handles System service call via SWI instruction.
  */
void SVC_Handler(void)
{
 8001a68:	b480      	push	{r7}
 8001a6a:	af00      	add	r7, sp, #0

  /* USER CODE END SVCall_IRQn 0 */
  /* USER CODE BEGIN SVCall_IRQn 1 */

  /* USER CODE END SVCall_IRQn 1 */
}
 8001a6c:	bf00      	nop
 8001a6e:	46bd      	mov	sp, r7
 8001a70:	bc80      	pop	{r7}
 8001a72:	4770      	bx	lr

08001a74 <DebugMon_Handler>:

/**
  * @brief This function handles Debug monitor.
  */
void DebugMon_Handler(void)
{
 8001a74:	b480      	push	{r7}
 8001a76:	af00      	add	r7, sp, #0

  /* USER CODE END DebugMonitor_IRQn 0 */
  /* USER CODE BEGIN DebugMonitor_IRQn 1 */

  /* USER CODE END DebugMonitor_IRQn 1 */
}
 8001a78:	bf00      	nop
 8001a7a:	46bd      	mov	sp, r7
 8001a7c:	bc80      	pop	{r7}
 8001a7e:	4770      	bx	lr

08001a80 <PendSV_Handler>:

/**
  * @brief This function handles Pendable request for system service.
  */
void PendSV_Handler(void)
{
 8001a80:	b480      	push	{r7}
 8001a82:	af00      	add	r7, sp, #0

  /* USER CODE END PendSV_IRQn 0 */
  /* USER CODE BEGIN PendSV_IRQn 1 */

  /* USER CODE END PendSV_IRQn 1 */
}
 8001a84:	bf00      	nop
 8001a86:	46bd      	mov	sp, r7
 8001a88:	bc80      	pop	{r7}
 8001a8a:	4770      	bx	lr

08001a8c <SysTick_Handler>:

/**
  * @brief This function handles System tick timer.
  */
void SysTick_Handler(void)
{
 8001a8c:	b580      	push	{r7, lr}
 8001a8e:	af00      	add	r7, sp, #0
  /* USER CODE BEGIN SysTick_IRQn 0 */
	IncrementSystemTick_Callback();
 8001a90:	f7ff fbf6 	bl	8001280 <IncrementSystemTick_Callback>
  /* USER CODE END SysTick_IRQn 0 */

  /* USER CODE BEGIN SysTick_IRQn 1 */

  /* USER CODE END SysTick_IRQn 1 */
}
 8001a94:	bf00      	nop
 8001a96:	bd80      	pop	{r7, pc}

08001a98 <DMA1_Channel2_IRQHandler>:

/**
  * @brief This function handles DMA1 channel2 global interrupt.
  */
void DMA1_Channel2_IRQHandler(void)
{
 8001a98:	b480      	push	{r7}
 8001a9a:	af00      	add	r7, sp, #0
  /* USER CODE END DMA1_Channel2_IRQn 0 */

  /* USER CODE BEGIN DMA1_Channel2_IRQn 1 */

  /* USER CODE END DMA1_Channel2_IRQn 1 */
}
 8001a9c:	bf00      	nop
 8001a9e:	46bd      	mov	sp, r7
 8001aa0:	bc80      	pop	{r7}
 8001aa2:	4770      	bx	lr

08001aa4 <DMA1_Channel5_IRQHandler>:

/**
  * @brief This function handles DMA1 channel5 global interrupt.
  */
void DMA1_Channel5_IRQHandler(void)
{
 8001aa4:	b480      	push	{r7}
 8001aa6:	af00      	add	r7, sp, #0
  /* USER CODE END DMA1_Channel5_IRQn 0 */

  /* USER CODE BEGIN DMA1_Channel5_IRQn 1 */

  /* USER CODE END DMA1_Channel5_IRQn 1 */
}
 8001aa8:	bf00      	nop
 8001aaa:	46bd      	mov	sp, r7
 8001aac:	bc80      	pop	{r7}
 8001aae:	4770      	bx	lr

08001ab0 <I2C1_EV_IRQHandler>:

/**
  * @brief This function handles I2C1 event interrupt.
  */
void I2C1_EV_IRQHandler(void)
{
 8001ab0:	b480      	push	{r7}
 8001ab2:	af00      	add	r7, sp, #0
  /* USER CODE END I2C1_EV_IRQn 0 */

  /* USER CODE BEGIN I2C1_EV_IRQn 1 */

  /* USER CODE END I2C1_EV_IRQn 1 */
}
 8001ab4:	bf00      	nop
 8001ab6:	46bd      	mov	sp, r7
 8001ab8:	bc80      	pop	{r7}
 8001aba:	4770      	bx	lr

08001abc <USART1_IRQHandler>:

/**
  * @brief This function handles USART1 global interrupt.
  */
void USART1_IRQHandler(void)
{
 8001abc:	b580      	push	{r7, lr}
 8001abe:	af00      	add	r7, sp, #0
  /* USER CODE BEGIN USART1_IRQn 0 */

	if( LL_USART_IsActiveFlag_RXNE(USART1) ) {
 8001ac0:	4817      	ldr	r0, [pc, #92]	; (8001b20 <USART1_IRQHandler+0x64>)
 8001ac2:	f7ff ff9d 	bl	8001a00 <LL_USART_IsActiveFlag_RXNE>
 8001ac6:	4603      	mov	r3, r0
 8001ac8:	2b00      	cmp	r3, #0
 8001aca:	bf14      	ite	ne
 8001acc:	2301      	movne	r3, #1
 8001ace:	2300      	moveq	r3, #0
 8001ad0:	b2db      	uxtb	r3, r3
 8001ad2:	2b00      	cmp	r3, #0
 8001ad4:	d002      	beq.n	8001adc <USART1_IRQHandler+0x20>

		USART1_ReadSbus_Callback();
 8001ad6:	f000 fbcf 	bl	8002278 <USART1_ReadSbus_Callback>

  /* USER CODE END USART1_IRQn 0 */
  /* USER CODE BEGIN USART1_IRQn 1 */

  /* USER CODE END USART1_IRQn 1 */
}
 8001ada:	e01e      	b.n	8001b1a <USART1_IRQHandler+0x5e>
	} else if ( 	LL_USART_IsActiveFlag_ORE(USART1)
 8001adc:	4810      	ldr	r0, [pc, #64]	; (8001b20 <USART1_IRQHandler+0x64>)
 8001ade:	f7ff ff7d 	bl	80019dc <LL_USART_IsActiveFlag_ORE>
 8001ae2:	4603      	mov	r3, r0
				|| 	LL_USART_IsActiveFlag_LBD(USART1)  ) {
 8001ae4:	2b00      	cmp	r3, #0
 8001ae6:	d111      	bne.n	8001b0c <USART1_IRQHandler+0x50>
				|| 	LL_USART_IsActiveFlag_NE(USART1)
 8001ae8:	480d      	ldr	r0, [pc, #52]	; (8001b20 <USART1_IRQHandler+0x64>)
 8001aea:	f7ff ff65 	bl	80019b8 <LL_USART_IsActiveFlag_NE>
 8001aee:	4603      	mov	r3, r0
 8001af0:	2b00      	cmp	r3, #0
 8001af2:	d10b      	bne.n	8001b0c <USART1_IRQHandler+0x50>
				|| 	LL_USART_IsActiveFlag_PE(USART1)
 8001af4:	480a      	ldr	r0, [pc, #40]	; (8001b20 <USART1_IRQHandler+0x64>)
 8001af6:	f7ff ff4d 	bl	8001994 <LL_USART_IsActiveFlag_PE>
 8001afa:	4603      	mov	r3, r0
 8001afc:	2b00      	cmp	r3, #0
 8001afe:	d105      	bne.n	8001b0c <USART1_IRQHandler+0x50>
				|| 	LL_USART_IsActiveFlag_LBD(USART1)  ) {
 8001b00:	4807      	ldr	r0, [pc, #28]	; (8001b20 <USART1_IRQHandler+0x64>)
 8001b02:	f7ff ff8f 	bl	8001a24 <LL_USART_IsActiveFlag_LBD>
 8001b06:	4603      	mov	r3, r0
 8001b08:	2b00      	cmp	r3, #0
 8001b0a:	d001      	beq.n	8001b10 <USART1_IRQHandler+0x54>
 8001b0c:	2301      	movs	r3, #1
 8001b0e:	e000      	b.n	8001b12 <USART1_IRQHandler+0x56>
 8001b10:	2300      	movs	r3, #0
	} else if ( 	LL_USART_IsActiveFlag_ORE(USART1)
 8001b12:	2b00      	cmp	r3, #0
 8001b14:	d001      	beq.n	8001b1a <USART1_IRQHandler+0x5e>
		USART1_Error_Callback();
 8001b16:	f000 fbc5 	bl	80022a4 <USART1_Error_Callback>
}
 8001b1a:	bf00      	nop
 8001b1c:	bd80      	pop	{r7, pc}
 8001b1e:	bf00      	nop
 8001b20:	40013800 	.word	0x40013800

08001b24 <_Z41__static_initialization_and_destruction_0ii>:
 8001b24:	b580      	push	{r7, lr}
 8001b26:	b082      	sub	sp, #8
 8001b28:	af00      	add	r7, sp, #0
 8001b2a:	6078      	str	r0, [r7, #4]
 8001b2c:	6039      	str	r1, [r7, #0]
 8001b2e:	687b      	ldr	r3, [r7, #4]
 8001b30:	2b01      	cmp	r3, #1
 8001b32:	d115      	bne.n	8001b60 <_Z41__static_initialization_and_destruction_0ii+0x3c>
 8001b34:	683b      	ldr	r3, [r7, #0]
 8001b36:	f64f 72ff 	movw	r2, #65535	; 0xffff
 8001b3a:	4293      	cmp	r3, r2
 8001b3c:	d110      	bne.n	8001b60 <_Z41__static_initialization_and_destruction_0ii+0x3c>
 8001b3e:	4b17      	ldr	r3, [pc, #92]	; (8001b9c <_Z41__static_initialization_and_destruction_0ii+0x78>)
 8001b40:	681b      	ldr	r3, [r3, #0]
 8001b42:	3301      	adds	r3, #1
 8001b44:	4a15      	ldr	r2, [pc, #84]	; (8001b9c <_Z41__static_initialization_and_destruction_0ii+0x78>)
 8001b46:	6013      	str	r3, [r2, #0]
 8001b48:	4b14      	ldr	r3, [pc, #80]	; (8001b9c <_Z41__static_initialization_and_destruction_0ii+0x78>)
 8001b4a:	681b      	ldr	r3, [r3, #0]
 8001b4c:	2b01      	cmp	r3, #1
 8001b4e:	bf0c      	ite	eq
 8001b50:	2301      	moveq	r3, #1
 8001b52:	2300      	movne	r3, #0
 8001b54:	b2db      	uxtb	r3, r3
 8001b56:	2b00      	cmp	r3, #0
 8001b58:	d002      	beq.n	8001b60 <_Z41__static_initialization_and_destruction_0ii+0x3c>
 8001b5a:	4811      	ldr	r0, [pc, #68]	; (8001ba0 <_Z41__static_initialization_and_destruction_0ii+0x7c>)
 8001b5c:	f7ff faea 	bl	8001134 <_ZN7GlobalsC1Ev>
 8001b60:	687b      	ldr	r3, [r7, #4]
 8001b62:	2b00      	cmp	r3, #0
 8001b64:	d115      	bne.n	8001b92 <_Z41__static_initialization_and_destruction_0ii+0x6e>
 8001b66:	683b      	ldr	r3, [r7, #0]
 8001b68:	f64f 72ff 	movw	r2, #65535	; 0xffff
 8001b6c:	4293      	cmp	r3, r2
 8001b6e:	d110      	bne.n	8001b92 <_Z41__static_initialization_and_destruction_0ii+0x6e>
 8001b70:	4b0a      	ldr	r3, [pc, #40]	; (8001b9c <_Z41__static_initialization_and_destruction_0ii+0x78>)
 8001b72:	681b      	ldr	r3, [r3, #0]
 8001b74:	3b01      	subs	r3, #1
 8001b76:	4a09      	ldr	r2, [pc, #36]	; (8001b9c <_Z41__static_initialization_and_destruction_0ii+0x78>)
 8001b78:	6013      	str	r3, [r2, #0]
 8001b7a:	4b08      	ldr	r3, [pc, #32]	; (8001b9c <_Z41__static_initialization_and_destruction_0ii+0x78>)
 8001b7c:	681b      	ldr	r3, [r3, #0]
 8001b7e:	2b00      	cmp	r3, #0
 8001b80:	bf0c      	ite	eq
 8001b82:	2301      	moveq	r3, #1
 8001b84:	2300      	movne	r3, #0
 8001b86:	b2db      	uxtb	r3, r3
 8001b88:	2b00      	cmp	r3, #0
 8001b8a:	d002      	beq.n	8001b92 <_Z41__static_initialization_and_destruction_0ii+0x6e>
 8001b8c:	4804      	ldr	r0, [pc, #16]	; (8001ba0 <_Z41__static_initialization_and_destruction_0ii+0x7c>)
 8001b8e:	f7ff fb85 	bl	800129c <_ZN7GlobalsD1Ev>
 8001b92:	bf00      	nop
 8001b94:	3708      	adds	r7, #8
 8001b96:	46bd      	mov	sp, r7
 8001b98:	bd80      	pop	{r7, pc}
 8001b9a:	bf00      	nop
 8001b9c:	200000f4 	.word	0x200000f4
 8001ba0:	20000084 	.word	0x20000084

08001ba4 <_GLOBAL__sub_I_NMI_Handler>:
 8001ba4:	b580      	push	{r7, lr}
 8001ba6:	af00      	add	r7, sp, #0
 8001ba8:	f64f 71ff 	movw	r1, #65535	; 0xffff
 8001bac:	2001      	movs	r0, #1
 8001bae:	f7ff ffb9 	bl	8001b24 <_Z41__static_initialization_and_destruction_0ii>
 8001bb2:	bd80      	pop	{r7, pc}

08001bb4 <_GLOBAL__sub_D_NMI_Handler>:
 8001bb4:	b580      	push	{r7, lr}
 8001bb6:	af00      	add	r7, sp, #0
 8001bb8:	f64f 71ff 	movw	r1, #65535	; 0xffff
 8001bbc:	2000      	movs	r0, #0
 8001bbe:	f7ff ffb1 	bl	8001b24 <_Z41__static_initialization_and_destruction_0ii>
 8001bc2:	bd80      	pop	{r7, pc}

08001bc4 <SystemInit>:
  * @note   This function should be used only after reset.
  * @param  None
  * @retval None
  */
void SystemInit (void)
{
 8001bc4:	b480      	push	{r7}
 8001bc6:	af00      	add	r7, sp, #0

  /* Configure the Vector Table location -------------------------------------*/
#if defined(USER_VECT_TAB_ADDRESS)
  SCB->VTOR = VECT_TAB_BASE_ADDRESS | VECT_TAB_OFFSET; /* Vector Table Relocation in Internal SRAM. */
#endif /* USER_VECT_TAB_ADDRESS */
}
 8001bc8:	bf00      	nop
 8001bca:	46bd      	mov	sp, r7
 8001bcc:	bc80      	pop	{r7}
 8001bce:	4770      	bx	lr

08001bd0 <SystemCoreClockUpdate>:
  *           value for HSE crystal.
  * @param  None
  * @retval None
  */
void SystemCoreClockUpdate (void)
{
 8001bd0:	b480      	push	{r7}
 8001bd2:	b085      	sub	sp, #20
 8001bd4:	af00      	add	r7, sp, #0
  uint32_t tmp = 0U, pllmull = 0U, pllsource = 0U;
 8001bd6:	2300      	movs	r3, #0
 8001bd8:	60fb      	str	r3, [r7, #12]
 8001bda:	2300      	movs	r3, #0
 8001bdc:	60bb      	str	r3, [r7, #8]
 8001bde:	2300      	movs	r3, #0
 8001be0:	607b      	str	r3, [r7, #4]
#if defined(STM32F100xB) || defined(STM32F100xE)
  uint32_t prediv1factor = 0U;
#endif /* STM32F100xB or STM32F100xE */
    
  /* Get SYSCLK source -------------------------------------------------------*/
  tmp = RCC->CFGR & RCC_CFGR_SWS;
 8001be2:	4b2f      	ldr	r3, [pc, #188]	; (8001ca0 <SystemCoreClockUpdate+0xd0>)
 8001be4:	685b      	ldr	r3, [r3, #4]
 8001be6:	f003 030c 	and.w	r3, r3, #12
 8001bea:	60fb      	str	r3, [r7, #12]
  
  switch (tmp)
 8001bec:	68fb      	ldr	r3, [r7, #12]
 8001bee:	2b08      	cmp	r3, #8
 8001bf0:	d011      	beq.n	8001c16 <SystemCoreClockUpdate+0x46>
 8001bf2:	68fb      	ldr	r3, [r7, #12]
 8001bf4:	2b08      	cmp	r3, #8
 8001bf6:	d83a      	bhi.n	8001c6e <SystemCoreClockUpdate+0x9e>
 8001bf8:	68fb      	ldr	r3, [r7, #12]
 8001bfa:	2b00      	cmp	r3, #0
 8001bfc:	d003      	beq.n	8001c06 <SystemCoreClockUpdate+0x36>
 8001bfe:	68fb      	ldr	r3, [r7, #12]
 8001c00:	2b04      	cmp	r3, #4
 8001c02:	d004      	beq.n	8001c0e <SystemCoreClockUpdate+0x3e>
 8001c04:	e033      	b.n	8001c6e <SystemCoreClockUpdate+0x9e>
  {
    case 0x00U:  /* HSI used as system clock */
      SystemCoreClock = HSI_VALUE;
 8001c06:	4b27      	ldr	r3, [pc, #156]	; (8001ca4 <SystemCoreClockUpdate+0xd4>)
 8001c08:	4a27      	ldr	r2, [pc, #156]	; (8001ca8 <SystemCoreClockUpdate+0xd8>)
 8001c0a:	601a      	str	r2, [r3, #0]
      break;
 8001c0c:	e033      	b.n	8001c76 <SystemCoreClockUpdate+0xa6>
    case 0x04U:  /* HSE used as system clock */
      SystemCoreClock = HSE_VALUE;
 8001c0e:	4b25      	ldr	r3, [pc, #148]	; (8001ca4 <SystemCoreClockUpdate+0xd4>)
 8001c10:	4a25      	ldr	r2, [pc, #148]	; (8001ca8 <SystemCoreClockUpdate+0xd8>)
 8001c12:	601a      	str	r2, [r3, #0]
      break;
 8001c14:	e02f      	b.n	8001c76 <SystemCoreClockUpdate+0xa6>
    case 0x08U:  /* PLL used as system clock */

      /* Get PLL clock source and multiplication factor ----------------------*/
      pllmull = RCC->CFGR & RCC_CFGR_PLLMULL;
 8001c16:	4b22      	ldr	r3, [pc, #136]	; (8001ca0 <SystemCoreClockUpdate+0xd0>)
 8001c18:	685b      	ldr	r3, [r3, #4]
 8001c1a:	f403 1370 	and.w	r3, r3, #3932160	; 0x3c0000
 8001c1e:	60bb      	str	r3, [r7, #8]
      pllsource = RCC->CFGR & RCC_CFGR_PLLSRC;
 8001c20:	4b1f      	ldr	r3, [pc, #124]	; (8001ca0 <SystemCoreClockUpdate+0xd0>)
 8001c22:	685b      	ldr	r3, [r3, #4]
 8001c24:	f403 3380 	and.w	r3, r3, #65536	; 0x10000
 8001c28:	607b      	str	r3, [r7, #4]
      
#if !defined(STM32F105xC) && !defined(STM32F107xC)      
      pllmull = ( pllmull >> 18U) + 2U;
 8001c2a:	68bb      	ldr	r3, [r7, #8]
 8001c2c:	0c9b      	lsrs	r3, r3, #18
 8001c2e:	3302      	adds	r3, #2
 8001c30:	60bb      	str	r3, [r7, #8]
      
      if (pllsource == 0x00U)
 8001c32:	687b      	ldr	r3, [r7, #4]
 8001c34:	2b00      	cmp	r3, #0
 8001c36:	d106      	bne.n	8001c46 <SystemCoreClockUpdate+0x76>
      {
        /* HSI oscillator clock divided by 2 selected as PLL clock entry */
        SystemCoreClock = (HSI_VALUE >> 1U) * pllmull;
 8001c38:	68bb      	ldr	r3, [r7, #8]
 8001c3a:	4a1c      	ldr	r2, [pc, #112]	; (8001cac <SystemCoreClockUpdate+0xdc>)
 8001c3c:	fb02 f303 	mul.w	r3, r2, r3
 8001c40:	4a18      	ldr	r2, [pc, #96]	; (8001ca4 <SystemCoreClockUpdate+0xd4>)
 8001c42:	6013      	str	r3, [r2, #0]
          pll2mull = ((RCC->CFGR2 & RCC_CFGR2_PLL2MUL) >> 8U) + 2U; 
          SystemCoreClock = (((HSE_VALUE / prediv2factor) * pll2mull) / prediv1factor) * pllmull;                         
        }
      }
#endif /* STM32F105xC */ 
      break;
 8001c44:	e017      	b.n	8001c76 <SystemCoreClockUpdate+0xa6>
        if ((RCC->CFGR & RCC_CFGR_PLLXTPRE) != (uint32_t)RESET)
 8001c46:	4b16      	ldr	r3, [pc, #88]	; (8001ca0 <SystemCoreClockUpdate+0xd0>)
 8001c48:	685b      	ldr	r3, [r3, #4]
 8001c4a:	f403 3300 	and.w	r3, r3, #131072	; 0x20000
 8001c4e:	2b00      	cmp	r3, #0
 8001c50:	d006      	beq.n	8001c60 <SystemCoreClockUpdate+0x90>
          SystemCoreClock = (HSE_VALUE >> 1U) * pllmull;
 8001c52:	68bb      	ldr	r3, [r7, #8]
 8001c54:	4a15      	ldr	r2, [pc, #84]	; (8001cac <SystemCoreClockUpdate+0xdc>)
 8001c56:	fb02 f303 	mul.w	r3, r2, r3
 8001c5a:	4a12      	ldr	r2, [pc, #72]	; (8001ca4 <SystemCoreClockUpdate+0xd4>)
 8001c5c:	6013      	str	r3, [r2, #0]
      break;
 8001c5e:	e00a      	b.n	8001c76 <SystemCoreClockUpdate+0xa6>
          SystemCoreClock = HSE_VALUE * pllmull;
 8001c60:	68bb      	ldr	r3, [r7, #8]
 8001c62:	4a11      	ldr	r2, [pc, #68]	; (8001ca8 <SystemCoreClockUpdate+0xd8>)
 8001c64:	fb02 f303 	mul.w	r3, r2, r3
 8001c68:	4a0e      	ldr	r2, [pc, #56]	; (8001ca4 <SystemCoreClockUpdate+0xd4>)
 8001c6a:	6013      	str	r3, [r2, #0]
      break;
 8001c6c:	e003      	b.n	8001c76 <SystemCoreClockUpdate+0xa6>

    default:
      SystemCoreClock = HSI_VALUE;
 8001c6e:	4b0d      	ldr	r3, [pc, #52]	; (8001ca4 <SystemCoreClockUpdate+0xd4>)
 8001c70:	4a0d      	ldr	r2, [pc, #52]	; (8001ca8 <SystemCoreClockUpdate+0xd8>)
 8001c72:	601a      	str	r2, [r3, #0]
      break;
 8001c74:	bf00      	nop
  }
  
  /* Compute HCLK clock frequency ----------------*/
  /* Get HCLK prescaler */
  tmp = AHBPrescTable[((RCC->CFGR & RCC_CFGR_HPRE) >> 4U)];
 8001c76:	4b0a      	ldr	r3, [pc, #40]	; (8001ca0 <SystemCoreClockUpdate+0xd0>)
 8001c78:	685b      	ldr	r3, [r3, #4]
 8001c7a:	091b      	lsrs	r3, r3, #4
 8001c7c:	f003 030f 	and.w	r3, r3, #15
 8001c80:	4a0b      	ldr	r2, [pc, #44]	; (8001cb0 <SystemCoreClockUpdate+0xe0>)
 8001c82:	5cd3      	ldrb	r3, [r2, r3]
 8001c84:	60fb      	str	r3, [r7, #12]
  /* HCLK clock frequency */
  SystemCoreClock >>= tmp;  
 8001c86:	4b07      	ldr	r3, [pc, #28]	; (8001ca4 <SystemCoreClockUpdate+0xd4>)
 8001c88:	681a      	ldr	r2, [r3, #0]
 8001c8a:	68fb      	ldr	r3, [r7, #12]
 8001c8c:	fa22 f303 	lsr.w	r3, r2, r3
 8001c90:	4a04      	ldr	r2, [pc, #16]	; (8001ca4 <SystemCoreClockUpdate+0xd4>)
 8001c92:	6013      	str	r3, [r2, #0]
}
 8001c94:	bf00      	nop
 8001c96:	3714      	adds	r7, #20
 8001c98:	46bd      	mov	sp, r7
 8001c9a:	bc80      	pop	{r7}
 8001c9c:	4770      	bx	lr
 8001c9e:	bf00      	nop
 8001ca0:	40021000 	.word	0x40021000
 8001ca4:	20000000 	.word	0x20000000
 8001ca8:	007a1200 	.word	0x007a1200
 8001cac:	003d0900 	.word	0x003d0900
 8001cb0:	08002e10 	.word	0x08002e10

08001cb4 <__NVIC_GetPriorityGrouping>:
{
 8001cb4:	b480      	push	{r7}
 8001cb6:	af00      	add	r7, sp, #0
  return ((uint32_t)((SCB->AIRCR & SCB_AIRCR_PRIGROUP_Msk) >> SCB_AIRCR_PRIGROUP_Pos));
 8001cb8:	4b04      	ldr	r3, [pc, #16]	; (8001ccc <__NVIC_GetPriorityGrouping+0x18>)
 8001cba:	68db      	ldr	r3, [r3, #12]
 8001cbc:	0a1b      	lsrs	r3, r3, #8
 8001cbe:	f003 0307 	and.w	r3, r3, #7
}
 8001cc2:	4618      	mov	r0, r3
 8001cc4:	46bd      	mov	sp, r7
 8001cc6:	bc80      	pop	{r7}
 8001cc8:	4770      	bx	lr
 8001cca:	bf00      	nop
 8001ccc:	e000ed00 	.word	0xe000ed00

08001cd0 <__NVIC_EnableIRQ>:
{
 8001cd0:	b480      	push	{r7}
 8001cd2:	b083      	sub	sp, #12
 8001cd4:	af00      	add	r7, sp, #0
 8001cd6:	4603      	mov	r3, r0
 8001cd8:	71fb      	strb	r3, [r7, #7]
  if ((int32_t)(IRQn) >= 0)
 8001cda:	f997 3007 	ldrsb.w	r3, [r7, #7]
 8001cde:	2b00      	cmp	r3, #0
 8001ce0:	db0b      	blt.n	8001cfa <__NVIC_EnableIRQ+0x2a>
    NVIC->ISER[(((uint32_t)IRQn) >> 5UL)] = (uint32_t)(1UL << (((uint32_t)IRQn) & 0x1FUL));
 8001ce2:	79fb      	ldrb	r3, [r7, #7]
 8001ce4:	f003 021f 	and.w	r2, r3, #31
 8001ce8:	4906      	ldr	r1, [pc, #24]	; (8001d04 <__NVIC_EnableIRQ+0x34>)
 8001cea:	f997 3007 	ldrsb.w	r3, [r7, #7]
 8001cee:	095b      	lsrs	r3, r3, #5
 8001cf0:	2001      	movs	r0, #1
 8001cf2:	fa00 f202 	lsl.w	r2, r0, r2
 8001cf6:	f841 2023 	str.w	r2, [r1, r3, lsl #2]
}
 8001cfa:	bf00      	nop
 8001cfc:	370c      	adds	r7, #12
 8001cfe:	46bd      	mov	sp, r7
 8001d00:	bc80      	pop	{r7}
 8001d02:	4770      	bx	lr
 8001d04:	e000e100 	.word	0xe000e100

08001d08 <__NVIC_SetPriority>:
{
 8001d08:	b480      	push	{r7}
 8001d0a:	b083      	sub	sp, #12
 8001d0c:	af00      	add	r7, sp, #0
 8001d0e:	4603      	mov	r3, r0
 8001d10:	6039      	str	r1, [r7, #0]
 8001d12:	71fb      	strb	r3, [r7, #7]
  if ((int32_t)(IRQn) >= 0)
 8001d14:	f997 3007 	ldrsb.w	r3, [r7, #7]
 8001d18:	2b00      	cmp	r3, #0
 8001d1a:	db0a      	blt.n	8001d32 <__NVIC_SetPriority+0x2a>
    NVIC->IP[((uint32_t)IRQn)]               = (uint8_t)((priority << (8U - __NVIC_PRIO_BITS)) & (uint32_t)0xFFUL);
 8001d1c:	683b      	ldr	r3, [r7, #0]
 8001d1e:	b2da      	uxtb	r2, r3
 8001d20:	490c      	ldr	r1, [pc, #48]	; (8001d54 <__NVIC_SetPriority+0x4c>)
 8001d22:	f997 3007 	ldrsb.w	r3, [r7, #7]
 8001d26:	0112      	lsls	r2, r2, #4
 8001d28:	b2d2      	uxtb	r2, r2
 8001d2a:	440b      	add	r3, r1
 8001d2c:	f883 2300 	strb.w	r2, [r3, #768]	; 0x300
}
 8001d30:	e00a      	b.n	8001d48 <__NVIC_SetPriority+0x40>
    SCB->SHP[(((uint32_t)IRQn) & 0xFUL)-4UL] = (uint8_t)((priority << (8U - __NVIC_PRIO_BITS)) & (uint32_t)0xFFUL);
 8001d32:	683b      	ldr	r3, [r7, #0]
 8001d34:	b2da      	uxtb	r2, r3
 8001d36:	4908      	ldr	r1, [pc, #32]	; (8001d58 <__NVIC_SetPriority+0x50>)
 8001d38:	79fb      	ldrb	r3, [r7, #7]
 8001d3a:	f003 030f 	and.w	r3, r3, #15
 8001d3e:	3b04      	subs	r3, #4
 8001d40:	0112      	lsls	r2, r2, #4
 8001d42:	b2d2      	uxtb	r2, r2
 8001d44:	440b      	add	r3, r1
 8001d46:	761a      	strb	r2, [r3, #24]
}
 8001d48:	bf00      	nop
 8001d4a:	370c      	adds	r7, #12
 8001d4c:	46bd      	mov	sp, r7
 8001d4e:	bc80      	pop	{r7}
 8001d50:	4770      	bx	lr
 8001d52:	bf00      	nop
 8001d54:	e000e100 	.word	0xe000e100
 8001d58:	e000ed00 	.word	0xe000ed00

08001d5c <NVIC_EncodePriority>:
{
 8001d5c:	b480      	push	{r7}
 8001d5e:	b089      	sub	sp, #36	; 0x24
 8001d60:	af00      	add	r7, sp, #0
 8001d62:	60f8      	str	r0, [r7, #12]
 8001d64:	60b9      	str	r1, [r7, #8]
 8001d66:	607a      	str	r2, [r7, #4]
  uint32_t PriorityGroupTmp = (PriorityGroup & (uint32_t)0x07UL);   /* only values 0..7 are used          */
 8001d68:	68fb      	ldr	r3, [r7, #12]
 8001d6a:	f003 0307 	and.w	r3, r3, #7
 8001d6e:	61fb      	str	r3, [r7, #28]
  PreemptPriorityBits = ((7UL - PriorityGroupTmp) > (uint32_t)(__NVIC_PRIO_BITS)) ? (uint32_t)(__NVIC_PRIO_BITS) : (uint32_t)(7UL - PriorityGroupTmp);
 8001d70:	69fb      	ldr	r3, [r7, #28]
 8001d72:	f1c3 0307 	rsb	r3, r3, #7
 8001d76:	2b04      	cmp	r3, #4
 8001d78:	bf28      	it	cs
 8001d7a:	2304      	movcs	r3, #4
 8001d7c:	61bb      	str	r3, [r7, #24]
  SubPriorityBits     = ((PriorityGroupTmp + (uint32_t)(__NVIC_PRIO_BITS)) < (uint32_t)7UL) ? (uint32_t)0UL : (uint32_t)((PriorityGroupTmp - 7UL) + (uint32_t)(__NVIC_PRIO_BITS));
 8001d7e:	69fb      	ldr	r3, [r7, #28]
 8001d80:	3304      	adds	r3, #4
 8001d82:	2b06      	cmp	r3, #6
 8001d84:	d902      	bls.n	8001d8c <NVIC_EncodePriority+0x30>
 8001d86:	69fb      	ldr	r3, [r7, #28]
 8001d88:	3b03      	subs	r3, #3
 8001d8a:	e000      	b.n	8001d8e <NVIC_EncodePriority+0x32>
 8001d8c:	2300      	movs	r3, #0
 8001d8e:	617b      	str	r3, [r7, #20]
           ((PreemptPriority & (uint32_t)((1UL << (PreemptPriorityBits)) - 1UL)) << SubPriorityBits) |
 8001d90:	2201      	movs	r2, #1
 8001d92:	69bb      	ldr	r3, [r7, #24]
 8001d94:	fa02 f303 	lsl.w	r3, r2, r3
 8001d98:	1e5a      	subs	r2, r3, #1
 8001d9a:	68bb      	ldr	r3, [r7, #8]
 8001d9c:	401a      	ands	r2, r3
 8001d9e:	697b      	ldr	r3, [r7, #20]
 8001da0:	409a      	lsls	r2, r3
           ((SubPriority     & (uint32_t)((1UL << (SubPriorityBits    )) - 1UL)))
 8001da2:	2101      	movs	r1, #1
 8001da4:	697b      	ldr	r3, [r7, #20]
 8001da6:	fa01 f303 	lsl.w	r3, r1, r3
 8001daa:	1e59      	subs	r1, r3, #1
 8001dac:	687b      	ldr	r3, [r7, #4]
 8001dae:	400b      	ands	r3, r1
         );
 8001db0:	4313      	orrs	r3, r2
}
 8001db2:	4618      	mov	r0, r3
 8001db4:	3724      	adds	r7, #36	; 0x24
 8001db6:	46bd      	mov	sp, r7
 8001db8:	bc80      	pop	{r7}
 8001dba:	4770      	bx	lr

08001dbc <LL_DMA_SetDataTransferDirection>:
  *         @arg @ref LL_DMA_DIRECTION_MEMORY_TO_PERIPH
  *         @arg @ref LL_DMA_DIRECTION_MEMORY_TO_MEMORY
  * @retval None
  */
__STATIC_INLINE void LL_DMA_SetDataTransferDirection(DMA_TypeDef *DMAx, uint32_t Channel, uint32_t Direction)
{
 8001dbc:	b480      	push	{r7}
 8001dbe:	b085      	sub	sp, #20
 8001dc0:	af00      	add	r7, sp, #0
 8001dc2:	60f8      	str	r0, [r7, #12]
 8001dc4:	60b9      	str	r1, [r7, #8]
 8001dc6:	607a      	str	r2, [r7, #4]
  MODIFY_REG(((DMA_Channel_TypeDef *)((uint32_t)((uint32_t)DMAx + CHANNEL_OFFSET_TAB[Channel - 1U])))->CCR,
 8001dc8:	68bb      	ldr	r3, [r7, #8]
 8001dca:	3b01      	subs	r3, #1
 8001dcc:	4a0c      	ldr	r2, [pc, #48]	; (8001e00 <LL_DMA_SetDataTransferDirection+0x44>)
 8001dce:	5cd3      	ldrb	r3, [r2, r3]
 8001dd0:	461a      	mov	r2, r3
 8001dd2:	68fb      	ldr	r3, [r7, #12]
 8001dd4:	4413      	add	r3, r2
 8001dd6:	681b      	ldr	r3, [r3, #0]
 8001dd8:	f423 4380 	bic.w	r3, r3, #16384	; 0x4000
 8001ddc:	f023 0310 	bic.w	r3, r3, #16
 8001de0:	68ba      	ldr	r2, [r7, #8]
 8001de2:	3a01      	subs	r2, #1
 8001de4:	4906      	ldr	r1, [pc, #24]	; (8001e00 <LL_DMA_SetDataTransferDirection+0x44>)
 8001de6:	5c8a      	ldrb	r2, [r1, r2]
 8001de8:	4611      	mov	r1, r2
 8001dea:	68fa      	ldr	r2, [r7, #12]
 8001dec:	440a      	add	r2, r1
 8001dee:	4611      	mov	r1, r2
 8001df0:	687a      	ldr	r2, [r7, #4]
 8001df2:	4313      	orrs	r3, r2
 8001df4:	600b      	str	r3, [r1, #0]
             DMA_CCR_DIR | DMA_CCR_MEM2MEM, Direction);
}
 8001df6:	bf00      	nop
 8001df8:	3714      	adds	r7, #20
 8001dfa:	46bd      	mov	sp, r7
 8001dfc:	bc80      	pop	{r7}
 8001dfe:	4770      	bx	lr
 8001e00:	08002e28 	.word	0x08002e28

08001e04 <LL_DMA_SetMode>:
  *         @arg @ref LL_DMA_MODE_NORMAL
  *         @arg @ref LL_DMA_MODE_CIRCULAR
  * @retval None
  */
__STATIC_INLINE void LL_DMA_SetMode(DMA_TypeDef *DMAx, uint32_t Channel, uint32_t Mode)
{
 8001e04:	b480      	push	{r7}
 8001e06:	b085      	sub	sp, #20
 8001e08:	af00      	add	r7, sp, #0
 8001e0a:	60f8      	str	r0, [r7, #12]
 8001e0c:	60b9      	str	r1, [r7, #8]
 8001e0e:	607a      	str	r2, [r7, #4]
  MODIFY_REG(((DMA_Channel_TypeDef *)((uint32_t)((uint32_t)DMAx + CHANNEL_OFFSET_TAB[Channel - 1U])))->CCR, DMA_CCR_CIRC,
 8001e10:	68bb      	ldr	r3, [r7, #8]
 8001e12:	3b01      	subs	r3, #1
 8001e14:	4a0b      	ldr	r2, [pc, #44]	; (8001e44 <LL_DMA_SetMode+0x40>)
 8001e16:	5cd3      	ldrb	r3, [r2, r3]
 8001e18:	461a      	mov	r2, r3
 8001e1a:	68fb      	ldr	r3, [r7, #12]
 8001e1c:	4413      	add	r3, r2
 8001e1e:	681b      	ldr	r3, [r3, #0]
 8001e20:	f023 0220 	bic.w	r2, r3, #32
 8001e24:	68bb      	ldr	r3, [r7, #8]
 8001e26:	3b01      	subs	r3, #1
 8001e28:	4906      	ldr	r1, [pc, #24]	; (8001e44 <LL_DMA_SetMode+0x40>)
 8001e2a:	5ccb      	ldrb	r3, [r1, r3]
 8001e2c:	4619      	mov	r1, r3
 8001e2e:	68fb      	ldr	r3, [r7, #12]
 8001e30:	440b      	add	r3, r1
 8001e32:	4619      	mov	r1, r3
 8001e34:	687b      	ldr	r3, [r7, #4]
 8001e36:	4313      	orrs	r3, r2
 8001e38:	600b      	str	r3, [r1, #0]
             Mode);
}
 8001e3a:	bf00      	nop
 8001e3c:	3714      	adds	r7, #20
 8001e3e:	46bd      	mov	sp, r7
 8001e40:	bc80      	pop	{r7}
 8001e42:	4770      	bx	lr
 8001e44:	08002e28 	.word	0x08002e28

08001e48 <LL_DMA_SetPeriphIncMode>:
  *         @arg @ref LL_DMA_PERIPH_INCREMENT
  *         @arg @ref LL_DMA_PERIPH_NOINCREMENT
  * @retval None
  */
__STATIC_INLINE void LL_DMA_SetPeriphIncMode(DMA_TypeDef *DMAx, uint32_t Channel, uint32_t PeriphOrM2MSrcIncMode)
{
 8001e48:	b480      	push	{r7}
 8001e4a:	b085      	sub	sp, #20
 8001e4c:	af00      	add	r7, sp, #0
 8001e4e:	60f8      	str	r0, [r7, #12]
 8001e50:	60b9      	str	r1, [r7, #8]
 8001e52:	607a      	str	r2, [r7, #4]
  MODIFY_REG(((DMA_Channel_TypeDef *)((uint32_t)((uint32_t)DMAx + CHANNEL_OFFSET_TAB[Channel - 1U])))->CCR, DMA_CCR_PINC,
 8001e54:	68bb      	ldr	r3, [r7, #8]
 8001e56:	3b01      	subs	r3, #1
 8001e58:	4a0b      	ldr	r2, [pc, #44]	; (8001e88 <LL_DMA_SetPeriphIncMode+0x40>)
 8001e5a:	5cd3      	ldrb	r3, [r2, r3]
 8001e5c:	461a      	mov	r2, r3
 8001e5e:	68fb      	ldr	r3, [r7, #12]
 8001e60:	4413      	add	r3, r2
 8001e62:	681b      	ldr	r3, [r3, #0]
 8001e64:	f023 0240 	bic.w	r2, r3, #64	; 0x40
 8001e68:	68bb      	ldr	r3, [r7, #8]
 8001e6a:	3b01      	subs	r3, #1
 8001e6c:	4906      	ldr	r1, [pc, #24]	; (8001e88 <LL_DMA_SetPeriphIncMode+0x40>)
 8001e6e:	5ccb      	ldrb	r3, [r1, r3]
 8001e70:	4619      	mov	r1, r3
 8001e72:	68fb      	ldr	r3, [r7, #12]
 8001e74:	440b      	add	r3, r1
 8001e76:	4619      	mov	r1, r3
 8001e78:	687b      	ldr	r3, [r7, #4]
 8001e7a:	4313      	orrs	r3, r2
 8001e7c:	600b      	str	r3, [r1, #0]
             PeriphOrM2MSrcIncMode);
}
 8001e7e:	bf00      	nop
 8001e80:	3714      	adds	r7, #20
 8001e82:	46bd      	mov	sp, r7
 8001e84:	bc80      	pop	{r7}
 8001e86:	4770      	bx	lr
 8001e88:	08002e28 	.word	0x08002e28

08001e8c <LL_DMA_SetMemoryIncMode>:
  *         @arg @ref LL_DMA_MEMORY_INCREMENT
  *         @arg @ref LL_DMA_MEMORY_NOINCREMENT
  * @retval None
  */
__STATIC_INLINE void LL_DMA_SetMemoryIncMode(DMA_TypeDef *DMAx, uint32_t Channel, uint32_t MemoryOrM2MDstIncMode)
{
 8001e8c:	b480      	push	{r7}
 8001e8e:	b085      	sub	sp, #20
 8001e90:	af00      	add	r7, sp, #0
 8001e92:	60f8      	str	r0, [r7, #12]
 8001e94:	60b9      	str	r1, [r7, #8]
 8001e96:	607a      	str	r2, [r7, #4]
  MODIFY_REG(((DMA_Channel_TypeDef *)((uint32_t)((uint32_t)DMAx + CHANNEL_OFFSET_TAB[Channel - 1U])))->CCR, DMA_CCR_MINC,
 8001e98:	68bb      	ldr	r3, [r7, #8]
 8001e9a:	3b01      	subs	r3, #1
 8001e9c:	4a0b      	ldr	r2, [pc, #44]	; (8001ecc <LL_DMA_SetMemoryIncMode+0x40>)
 8001e9e:	5cd3      	ldrb	r3, [r2, r3]
 8001ea0:	461a      	mov	r2, r3
 8001ea2:	68fb      	ldr	r3, [r7, #12]
 8001ea4:	4413      	add	r3, r2
 8001ea6:	681b      	ldr	r3, [r3, #0]
 8001ea8:	f023 0280 	bic.w	r2, r3, #128	; 0x80
 8001eac:	68bb      	ldr	r3, [r7, #8]
 8001eae:	3b01      	subs	r3, #1
 8001eb0:	4906      	ldr	r1, [pc, #24]	; (8001ecc <LL_DMA_SetMemoryIncMode+0x40>)
 8001eb2:	5ccb      	ldrb	r3, [r1, r3]
 8001eb4:	4619      	mov	r1, r3
 8001eb6:	68fb      	ldr	r3, [r7, #12]
 8001eb8:	440b      	add	r3, r1
 8001eba:	4619      	mov	r1, r3
 8001ebc:	687b      	ldr	r3, [r7, #4]
 8001ebe:	4313      	orrs	r3, r2
 8001ec0:	600b      	str	r3, [r1, #0]
             MemoryOrM2MDstIncMode);
}
 8001ec2:	bf00      	nop
 8001ec4:	3714      	adds	r7, #20
 8001ec6:	46bd      	mov	sp, r7
 8001ec8:	bc80      	pop	{r7}
 8001eca:	4770      	bx	lr
 8001ecc:	08002e28 	.word	0x08002e28

08001ed0 <LL_DMA_SetPeriphSize>:
  *         @arg @ref LL_DMA_PDATAALIGN_HALFWORD
  *         @arg @ref LL_DMA_PDATAALIGN_WORD
  * @retval None
  */
__STATIC_INLINE void LL_DMA_SetPeriphSize(DMA_TypeDef *DMAx, uint32_t Channel, uint32_t PeriphOrM2MSrcDataSize)
{
 8001ed0:	b480      	push	{r7}
 8001ed2:	b085      	sub	sp, #20
 8001ed4:	af00      	add	r7, sp, #0
 8001ed6:	60f8      	str	r0, [r7, #12]
 8001ed8:	60b9      	str	r1, [r7, #8]
 8001eda:	607a      	str	r2, [r7, #4]
  MODIFY_REG(((DMA_Channel_TypeDef *)((uint32_t)((uint32_t)DMAx + CHANNEL_OFFSET_TAB[Channel - 1U])))->CCR, DMA_CCR_PSIZE,
 8001edc:	68bb      	ldr	r3, [r7, #8]
 8001ede:	3b01      	subs	r3, #1
 8001ee0:	4a0b      	ldr	r2, [pc, #44]	; (8001f10 <LL_DMA_SetPeriphSize+0x40>)
 8001ee2:	5cd3      	ldrb	r3, [r2, r3]
 8001ee4:	461a      	mov	r2, r3
 8001ee6:	68fb      	ldr	r3, [r7, #12]
 8001ee8:	4413      	add	r3, r2
 8001eea:	681b      	ldr	r3, [r3, #0]
 8001eec:	f423 7240 	bic.w	r2, r3, #768	; 0x300
 8001ef0:	68bb      	ldr	r3, [r7, #8]
 8001ef2:	3b01      	subs	r3, #1
 8001ef4:	4906      	ldr	r1, [pc, #24]	; (8001f10 <LL_DMA_SetPeriphSize+0x40>)
 8001ef6:	5ccb      	ldrb	r3, [r1, r3]
 8001ef8:	4619      	mov	r1, r3
 8001efa:	68fb      	ldr	r3, [r7, #12]
 8001efc:	440b      	add	r3, r1
 8001efe:	4619      	mov	r1, r3
 8001f00:	687b      	ldr	r3, [r7, #4]
 8001f02:	4313      	orrs	r3, r2
 8001f04:	600b      	str	r3, [r1, #0]
             PeriphOrM2MSrcDataSize);
}
 8001f06:	bf00      	nop
 8001f08:	3714      	adds	r7, #20
 8001f0a:	46bd      	mov	sp, r7
 8001f0c:	bc80      	pop	{r7}
 8001f0e:	4770      	bx	lr
 8001f10:	08002e28 	.word	0x08002e28

08001f14 <LL_DMA_SetMemorySize>:
  *         @arg @ref LL_DMA_MDATAALIGN_HALFWORD
  *         @arg @ref LL_DMA_MDATAALIGN_WORD
  * @retval None
  */
__STATIC_INLINE void LL_DMA_SetMemorySize(DMA_TypeDef *DMAx, uint32_t Channel, uint32_t MemoryOrM2MDstDataSize)
{
 8001f14:	b480      	push	{r7}
 8001f16:	b085      	sub	sp, #20
 8001f18:	af00      	add	r7, sp, #0
 8001f1a:	60f8      	str	r0, [r7, #12]
 8001f1c:	60b9      	str	r1, [r7, #8]
 8001f1e:	607a      	str	r2, [r7, #4]
  MODIFY_REG(((DMA_Channel_TypeDef *)((uint32_t)((uint32_t)DMAx + CHANNEL_OFFSET_TAB[Channel - 1U])))->CCR, DMA_CCR_MSIZE,
 8001f20:	68bb      	ldr	r3, [r7, #8]
 8001f22:	3b01      	subs	r3, #1
 8001f24:	4a0b      	ldr	r2, [pc, #44]	; (8001f54 <LL_DMA_SetMemorySize+0x40>)
 8001f26:	5cd3      	ldrb	r3, [r2, r3]
 8001f28:	461a      	mov	r2, r3
 8001f2a:	68fb      	ldr	r3, [r7, #12]
 8001f2c:	4413      	add	r3, r2
 8001f2e:	681b      	ldr	r3, [r3, #0]
 8001f30:	f423 6240 	bic.w	r2, r3, #3072	; 0xc00
 8001f34:	68bb      	ldr	r3, [r7, #8]
 8001f36:	3b01      	subs	r3, #1
 8001f38:	4906      	ldr	r1, [pc, #24]	; (8001f54 <LL_DMA_SetMemorySize+0x40>)
 8001f3a:	5ccb      	ldrb	r3, [r1, r3]
 8001f3c:	4619      	mov	r1, r3
 8001f3e:	68fb      	ldr	r3, [r7, #12]
 8001f40:	440b      	add	r3, r1
 8001f42:	4619      	mov	r1, r3
 8001f44:	687b      	ldr	r3, [r7, #4]
 8001f46:	4313      	orrs	r3, r2
 8001f48:	600b      	str	r3, [r1, #0]
             MemoryOrM2MDstDataSize);
}
 8001f4a:	bf00      	nop
 8001f4c:	3714      	adds	r7, #20
 8001f4e:	46bd      	mov	sp, r7
 8001f50:	bc80      	pop	{r7}
 8001f52:	4770      	bx	lr
 8001f54:	08002e28 	.word	0x08002e28

08001f58 <LL_DMA_SetChannelPriorityLevel>:
  *         @arg @ref LL_DMA_PRIORITY_HIGH
  *         @arg @ref LL_DMA_PRIORITY_VERYHIGH
  * @retval None
  */
__STATIC_INLINE void LL_DMA_SetChannelPriorityLevel(DMA_TypeDef *DMAx, uint32_t Channel, uint32_t Priority)
{
 8001f58:	b480      	push	{r7}
 8001f5a:	b085      	sub	sp, #20
 8001f5c:	af00      	add	r7, sp, #0
 8001f5e:	60f8      	str	r0, [r7, #12]
 8001f60:	60b9      	str	r1, [r7, #8]
 8001f62:	607a      	str	r2, [r7, #4]
  MODIFY_REG(((DMA_Channel_TypeDef *)((uint32_t)((uint32_t)DMAx + CHANNEL_OFFSET_TAB[Channel - 1U])))->CCR, DMA_CCR_PL,
 8001f64:	68bb      	ldr	r3, [r7, #8]
 8001f66:	3b01      	subs	r3, #1
 8001f68:	4a0b      	ldr	r2, [pc, #44]	; (8001f98 <LL_DMA_SetChannelPriorityLevel+0x40>)
 8001f6a:	5cd3      	ldrb	r3, [r2, r3]
 8001f6c:	461a      	mov	r2, r3
 8001f6e:	68fb      	ldr	r3, [r7, #12]
 8001f70:	4413      	add	r3, r2
 8001f72:	681b      	ldr	r3, [r3, #0]
 8001f74:	f423 5240 	bic.w	r2, r3, #12288	; 0x3000
 8001f78:	68bb      	ldr	r3, [r7, #8]
 8001f7a:	3b01      	subs	r3, #1
 8001f7c:	4906      	ldr	r1, [pc, #24]	; (8001f98 <LL_DMA_SetChannelPriorityLevel+0x40>)
 8001f7e:	5ccb      	ldrb	r3, [r1, r3]
 8001f80:	4619      	mov	r1, r3
 8001f82:	68fb      	ldr	r3, [r7, #12]
 8001f84:	440b      	add	r3, r1
 8001f86:	4619      	mov	r1, r3
 8001f88:	687b      	ldr	r3, [r7, #4]
 8001f8a:	4313      	orrs	r3, r2
 8001f8c:	600b      	str	r3, [r1, #0]
             Priority);
}
 8001f8e:	bf00      	nop
 8001f90:	3714      	adds	r7, #20
 8001f92:	46bd      	mov	sp, r7
 8001f94:	bc80      	pop	{r7}
 8001f96:	4770      	bx	lr
 8001f98:	08002e28 	.word	0x08002e28

08001f9c <LL_APB1_GRP1_EnableClock>:
{
 8001f9c:	b480      	push	{r7}
 8001f9e:	b085      	sub	sp, #20
 8001fa0:	af00      	add	r7, sp, #0
 8001fa2:	6078      	str	r0, [r7, #4]
  SET_BIT(RCC->APB1ENR, Periphs);
 8001fa4:	4b08      	ldr	r3, [pc, #32]	; (8001fc8 <LL_APB1_GRP1_EnableClock+0x2c>)
 8001fa6:	69da      	ldr	r2, [r3, #28]
 8001fa8:	4907      	ldr	r1, [pc, #28]	; (8001fc8 <LL_APB1_GRP1_EnableClock+0x2c>)
 8001faa:	687b      	ldr	r3, [r7, #4]
 8001fac:	4313      	orrs	r3, r2
 8001fae:	61cb      	str	r3, [r1, #28]
  tmpreg = READ_BIT(RCC->APB1ENR, Periphs);
 8001fb0:	4b05      	ldr	r3, [pc, #20]	; (8001fc8 <LL_APB1_GRP1_EnableClock+0x2c>)
 8001fb2:	69da      	ldr	r2, [r3, #28]
 8001fb4:	687b      	ldr	r3, [r7, #4]
 8001fb6:	4013      	ands	r3, r2
 8001fb8:	60fb      	str	r3, [r7, #12]
  (void)tmpreg;
 8001fba:	68fb      	ldr	r3, [r7, #12]
}
 8001fbc:	bf00      	nop
 8001fbe:	3714      	adds	r7, #20
 8001fc0:	46bd      	mov	sp, r7
 8001fc2:	bc80      	pop	{r7}
 8001fc4:	4770      	bx	lr
 8001fc6:	bf00      	nop
 8001fc8:	40021000 	.word	0x40021000

08001fcc <LL_APB2_GRP1_EnableClock>:
{
 8001fcc:	b480      	push	{r7}
 8001fce:	b085      	sub	sp, #20
 8001fd0:	af00      	add	r7, sp, #0
 8001fd2:	6078      	str	r0, [r7, #4]
  SET_BIT(RCC->APB2ENR, Periphs);
 8001fd4:	4b08      	ldr	r3, [pc, #32]	; (8001ff8 <LL_APB2_GRP1_EnableClock+0x2c>)
 8001fd6:	699a      	ldr	r2, [r3, #24]
 8001fd8:	4907      	ldr	r1, [pc, #28]	; (8001ff8 <LL_APB2_GRP1_EnableClock+0x2c>)
 8001fda:	687b      	ldr	r3, [r7, #4]
 8001fdc:	4313      	orrs	r3, r2
 8001fde:	618b      	str	r3, [r1, #24]
  tmpreg = READ_BIT(RCC->APB2ENR, Periphs);
 8001fe0:	4b05      	ldr	r3, [pc, #20]	; (8001ff8 <LL_APB2_GRP1_EnableClock+0x2c>)
 8001fe2:	699a      	ldr	r2, [r3, #24]
 8001fe4:	687b      	ldr	r3, [r7, #4]
 8001fe6:	4013      	ands	r3, r2
 8001fe8:	60fb      	str	r3, [r7, #12]
  (void)tmpreg;
 8001fea:	68fb      	ldr	r3, [r7, #12]
}
 8001fec:	bf00      	nop
 8001fee:	3714      	adds	r7, #20
 8001ff0:	46bd      	mov	sp, r7
 8001ff2:	bc80      	pop	{r7}
 8001ff4:	4770      	bx	lr
 8001ff6:	bf00      	nop
 8001ff8:	40021000 	.word	0x40021000

08001ffc <LL_USART_Enable>:
{
 8001ffc:	b480      	push	{r7}
 8001ffe:	b083      	sub	sp, #12
 8002000:	af00      	add	r7, sp, #0
 8002002:	6078      	str	r0, [r7, #4]
  SET_BIT(USARTx->CR1, USART_CR1_UE);
 8002004:	687b      	ldr	r3, [r7, #4]
 8002006:	68db      	ldr	r3, [r3, #12]
 8002008:	f443 5200 	orr.w	r2, r3, #8192	; 0x2000
 800200c:	687b      	ldr	r3, [r7, #4]
 800200e:	60da      	str	r2, [r3, #12]
}
 8002010:	bf00      	nop
 8002012:	370c      	adds	r7, #12
 8002014:	46bd      	mov	sp, r7
 8002016:	bc80      	pop	{r7}
 8002018:	4770      	bx	lr

0800201a <LL_USART_ConfigAsyncMode>:
{
 800201a:	b480      	push	{r7}
 800201c:	b083      	sub	sp, #12
 800201e:	af00      	add	r7, sp, #0
 8002020:	6078      	str	r0, [r7, #4]
  CLEAR_BIT(USARTx->CR2, (USART_CR2_LINEN | USART_CR2_CLKEN));
 8002022:	687b      	ldr	r3, [r7, #4]
 8002024:	691b      	ldr	r3, [r3, #16]
 8002026:	f423 4290 	bic.w	r2, r3, #18432	; 0x4800
 800202a:	687b      	ldr	r3, [r7, #4]
 800202c:	611a      	str	r2, [r3, #16]
  CLEAR_BIT(USARTx->CR3, (USART_CR3_SCEN | USART_CR3_IREN | USART_CR3_HDSEL));
 800202e:	687b      	ldr	r3, [r7, #4]
 8002030:	695b      	ldr	r3, [r3, #20]
 8002032:	f023 022a 	bic.w	r2, r3, #42	; 0x2a
 8002036:	687b      	ldr	r3, [r7, #4]
 8002038:	615a      	str	r2, [r3, #20]
}
 800203a:	bf00      	nop
 800203c:	370c      	adds	r7, #12
 800203e:	46bd      	mov	sp, r7
 8002040:	bc80      	pop	{r7}
 8002042:	4770      	bx	lr

08002044 <LL_USART_ReceiveData8>:
  * @rmtoll DR           DR            LL_USART_ReceiveData8
  * @param  USARTx USART Instance
  * @retval Value between Min_Data=0x00 and Max_Data=0xFF
  */
__STATIC_INLINE uint8_t LL_USART_ReceiveData8(const USART_TypeDef *USARTx)
{
 8002044:	b480      	push	{r7}
 8002046:	b083      	sub	sp, #12
 8002048:	af00      	add	r7, sp, #0
 800204a:	6078      	str	r0, [r7, #4]
  return (uint8_t)(READ_BIT(USARTx->DR, USART_DR_DR));
 800204c:	687b      	ldr	r3, [r7, #4]
 800204e:	685b      	ldr	r3, [r3, #4]
 8002050:	b2db      	uxtb	r3, r3
}
 8002052:	4618      	mov	r0, r3
 8002054:	370c      	adds	r7, #12
 8002056:	46bd      	mov	sp, r7
 8002058:	bc80      	pop	{r7}
 800205a:	4770      	bx	lr

0800205c <MX_USART1_UART_Init>:
/* USER CODE END 0 */

/* USART1 init function */

void MX_USART1_UART_Init(void)
{
 800205c:	b580      	push	{r7, lr}
 800205e:	b08c      	sub	sp, #48	; 0x30
 8002060:	af00      	add	r7, sp, #0

  /* USER CODE BEGIN USART1_Init 0 */

  /* USER CODE END USART1_Init 0 */

  LL_USART_InitTypeDef USART_InitStruct = {0};
 8002062:	f107 0314 	add.w	r3, r7, #20
 8002066:	2200      	movs	r2, #0
 8002068:	601a      	str	r2, [r3, #0]
 800206a:	605a      	str	r2, [r3, #4]
 800206c:	609a      	str	r2, [r3, #8]
 800206e:	60da      	str	r2, [r3, #12]
 8002070:	611a      	str	r2, [r3, #16]
 8002072:	615a      	str	r2, [r3, #20]
 8002074:	619a      	str	r2, [r3, #24]

  LL_GPIO_InitTypeDef GPIO_InitStruct = {0};
 8002076:	463b      	mov	r3, r7
 8002078:	2200      	movs	r2, #0
 800207a:	601a      	str	r2, [r3, #0]
 800207c:	605a      	str	r2, [r3, #4]
 800207e:	609a      	str	r2, [r3, #8]
 8002080:	60da      	str	r2, [r3, #12]
 8002082:	611a      	str	r2, [r3, #16]

  /* Peripheral clock enable */
  LL_APB2_GRP1_EnableClock(LL_APB2_GRP1_PERIPH_USART1);
 8002084:	f44f 4080 	mov.w	r0, #16384	; 0x4000
 8002088:	f7ff ffa0 	bl	8001fcc <LL_APB2_GRP1_EnableClock>

  LL_APB2_GRP1_EnableClock(LL_APB2_GRP1_PERIPH_GPIOA);
 800208c:	2004      	movs	r0, #4
 800208e:	f7ff ff9d 	bl	8001fcc <LL_APB2_GRP1_EnableClock>
  /**USART1 GPIO Configuration
  PA9   ------> USART1_TX
  PA10   ------> USART1_RX
  */
  GPIO_InitStruct.Pin = LL_GPIO_PIN_9;
 8002092:	4b34      	ldr	r3, [pc, #208]	; (8002164 <MX_USART1_UART_Init+0x108>)
 8002094:	603b      	str	r3, [r7, #0]
  GPIO_InitStruct.Mode = LL_GPIO_MODE_ALTERNATE;
 8002096:	2309      	movs	r3, #9
 8002098:	607b      	str	r3, [r7, #4]
  GPIO_InitStruct.Speed = LL_GPIO_SPEED_FREQ_HIGH;
 800209a:	2303      	movs	r3, #3
 800209c:	60bb      	str	r3, [r7, #8]
  GPIO_InitStruct.OutputType = LL_GPIO_OUTPUT_PUSHPULL;
 800209e:	2300      	movs	r3, #0
 80020a0:	60fb      	str	r3, [r7, #12]
  LL_GPIO_Init(GPIOA, &GPIO_InitStruct);
 80020a2:	463b      	mov	r3, r7
 80020a4:	4619      	mov	r1, r3
 80020a6:	4830      	ldr	r0, [pc, #192]	; (8002168 <MX_USART1_UART_Init+0x10c>)
 80020a8:	f000 fa33 	bl	8002512 <LL_GPIO_Init>

  GPIO_InitStruct.Pin = LL_GPIO_PIN_10;
 80020ac:	4b2f      	ldr	r3, [pc, #188]	; (800216c <MX_USART1_UART_Init+0x110>)
 80020ae:	603b      	str	r3, [r7, #0]
  GPIO_InitStruct.Mode = LL_GPIO_MODE_FLOATING;
 80020b0:	2304      	movs	r3, #4
 80020b2:	607b      	str	r3, [r7, #4]
  LL_GPIO_Init(GPIOA, &GPIO_InitStruct);
 80020b4:	463b      	mov	r3, r7
 80020b6:	4619      	mov	r1, r3
 80020b8:	482b      	ldr	r0, [pc, #172]	; (8002168 <MX_USART1_UART_Init+0x10c>)
 80020ba:	f000 fa2a 	bl	8002512 <LL_GPIO_Init>

  /* USART1 DMA Init */

  /* USART1_RX Init */
  LL_DMA_SetDataTransferDirection(DMA1, LL_DMA_CHANNEL_5, LL_DMA_DIRECTION_PERIPH_TO_MEMORY);
 80020be:	2200      	movs	r2, #0
 80020c0:	2105      	movs	r1, #5
 80020c2:	482b      	ldr	r0, [pc, #172]	; (8002170 <MX_USART1_UART_Init+0x114>)
 80020c4:	f7ff fe7a 	bl	8001dbc <LL_DMA_SetDataTransferDirection>

  LL_DMA_SetChannelPriorityLevel(DMA1, LL_DMA_CHANNEL_5, LL_DMA_PRIORITY_HIGH);
 80020c8:	f44f 5200 	mov.w	r2, #8192	; 0x2000
 80020cc:	2105      	movs	r1, #5
 80020ce:	4828      	ldr	r0, [pc, #160]	; (8002170 <MX_USART1_UART_Init+0x114>)
 80020d0:	f7ff ff42 	bl	8001f58 <LL_DMA_SetChannelPriorityLevel>

  LL_DMA_SetMode(DMA1, LL_DMA_CHANNEL_5, LL_DMA_MODE_NORMAL);
 80020d4:	2200      	movs	r2, #0
 80020d6:	2105      	movs	r1, #5
 80020d8:	4825      	ldr	r0, [pc, #148]	; (8002170 <MX_USART1_UART_Init+0x114>)
 80020da:	f7ff fe93 	bl	8001e04 <LL_DMA_SetMode>

  LL_DMA_SetPeriphIncMode(DMA1, LL_DMA_CHANNEL_5, LL_DMA_PERIPH_NOINCREMENT);
 80020de:	2200      	movs	r2, #0
 80020e0:	2105      	movs	r1, #5
 80020e2:	4823      	ldr	r0, [pc, #140]	; (8002170 <MX_USART1_UART_Init+0x114>)
 80020e4:	f7ff feb0 	bl	8001e48 <LL_DMA_SetPeriphIncMode>

  LL_DMA_SetMemoryIncMode(DMA1, LL_DMA_CHANNEL_5, LL_DMA_MEMORY_INCREMENT);
 80020e8:	2280      	movs	r2, #128	; 0x80
 80020ea:	2105      	movs	r1, #5
 80020ec:	4820      	ldr	r0, [pc, #128]	; (8002170 <MX_USART1_UART_Init+0x114>)
 80020ee:	f7ff fecd 	bl	8001e8c <LL_DMA_SetMemoryIncMode>

  LL_DMA_SetPeriphSize(DMA1, LL_DMA_CHANNEL_5, LL_DMA_PDATAALIGN_BYTE);
 80020f2:	2200      	movs	r2, #0
 80020f4:	2105      	movs	r1, #5
 80020f6:	481e      	ldr	r0, [pc, #120]	; (8002170 <MX_USART1_UART_Init+0x114>)
 80020f8:	f7ff feea 	bl	8001ed0 <LL_DMA_SetPeriphSize>

  LL_DMA_SetMemorySize(DMA1, LL_DMA_CHANNEL_5, LL_DMA_MDATAALIGN_BYTE);
 80020fc:	2200      	movs	r2, #0
 80020fe:	2105      	movs	r1, #5
 8002100:	481b      	ldr	r0, [pc, #108]	; (8002170 <MX_USART1_UART_Init+0x114>)
 8002102:	f7ff ff07 	bl	8001f14 <LL_DMA_SetMemorySize>

  /* USART1 interrupt Init */
  NVIC_SetPriority(USART1_IRQn, NVIC_EncodePriority(NVIC_GetPriorityGrouping(),0, 0));
 8002106:	f7ff fdd5 	bl	8001cb4 <__NVIC_GetPriorityGrouping>
 800210a:	4603      	mov	r3, r0
 800210c:	2200      	movs	r2, #0
 800210e:	2100      	movs	r1, #0
 8002110:	4618      	mov	r0, r3
 8002112:	f7ff fe23 	bl	8001d5c <NVIC_EncodePriority>
 8002116:	4603      	mov	r3, r0
 8002118:	4619      	mov	r1, r3
 800211a:	2025      	movs	r0, #37	; 0x25
 800211c:	f7ff fdf4 	bl	8001d08 <__NVIC_SetPriority>
  NVIC_EnableIRQ(USART1_IRQn);
 8002120:	2025      	movs	r0, #37	; 0x25
 8002122:	f7ff fdd5 	bl	8001cd0 <__NVIC_EnableIRQ>

  /* USER CODE BEGIN USART1_Init 1 */

  /* USER CODE END USART1_Init 1 */
  USART_InitStruct.BaudRate = 100000;
 8002126:	4b13      	ldr	r3, [pc, #76]	; (8002174 <MX_USART1_UART_Init+0x118>)
 8002128:	617b      	str	r3, [r7, #20]
  USART_InitStruct.DataWidth = LL_USART_DATAWIDTH_8B;
 800212a:	2300      	movs	r3, #0
 800212c:	61bb      	str	r3, [r7, #24]
  USART_InitStruct.StopBits = LL_USART_STOPBITS_1;
 800212e:	2300      	movs	r3, #0
 8002130:	61fb      	str	r3, [r7, #28]
  USART_InitStruct.Parity = LL_USART_PARITY_NONE;
 8002132:	2300      	movs	r3, #0
 8002134:	623b      	str	r3, [r7, #32]
  USART_InitStruct.TransferDirection = LL_USART_DIRECTION_TX_RX;
 8002136:	230c      	movs	r3, #12
 8002138:	627b      	str	r3, [r7, #36]	; 0x24
  USART_InitStruct.HardwareFlowControl = LL_USART_HWCONTROL_NONE;
 800213a:	2300      	movs	r3, #0
 800213c:	62bb      	str	r3, [r7, #40]	; 0x28
  USART_InitStruct.OverSampling = LL_USART_OVERSAMPLING_16;
 800213e:	2300      	movs	r3, #0
 8002140:	62fb      	str	r3, [r7, #44]	; 0x2c
  LL_USART_Init(USART1, &USART_InitStruct);
 8002142:	f107 0314 	add.w	r3, r7, #20
 8002146:	4619      	mov	r1, r3
 8002148:	480b      	ldr	r0, [pc, #44]	; (8002178 <MX_USART1_UART_Init+0x11c>)
 800214a:	f000 fd11 	bl	8002b70 <LL_USART_Init>
  LL_USART_ConfigAsyncMode(USART1);
 800214e:	480a      	ldr	r0, [pc, #40]	; (8002178 <MX_USART1_UART_Init+0x11c>)
 8002150:	f7ff ff63 	bl	800201a <LL_USART_ConfigAsyncMode>
  LL_USART_Enable(USART1);
 8002154:	4808      	ldr	r0, [pc, #32]	; (8002178 <MX_USART1_UART_Init+0x11c>)
 8002156:	f7ff ff51 	bl	8001ffc <LL_USART_Enable>
  /* USER CODE BEGIN USART1_Init 2 */

  /* USER CODE END USART1_Init 2 */

}
 800215a:	bf00      	nop
 800215c:	3730      	adds	r7, #48	; 0x30
 800215e:	46bd      	mov	sp, r7
 8002160:	bd80      	pop	{r7, pc}
 8002162:	bf00      	nop
 8002164:	04020002 	.word	0x04020002
 8002168:	40010800 	.word	0x40010800
 800216c:	04040004 	.word	0x04040004
 8002170:	40020000 	.word	0x40020000
 8002174:	000186a0 	.word	0x000186a0
 8002178:	40013800 	.word	0x40013800

0800217c <MX_USART3_UART_Init>:
/* USART3 init function */

void MX_USART3_UART_Init(void)
{
 800217c:	b580      	push	{r7, lr}
 800217e:	b08c      	sub	sp, #48	; 0x30
 8002180:	af00      	add	r7, sp, #0

  /* USER CODE BEGIN USART3_Init 0 */

  /* USER CODE END USART3_Init 0 */

  LL_USART_InitTypeDef USART_InitStruct = {0};
 8002182:	f107 0314 	add.w	r3, r7, #20
 8002186:	2200      	movs	r2, #0
 8002188:	601a      	str	r2, [r3, #0]
 800218a:	605a      	str	r2, [r3, #4]
 800218c:	609a      	str	r2, [r3, #8]
 800218e:	60da      	str	r2, [r3, #12]
 8002190:	611a      	str	r2, [r3, #16]
 8002192:	615a      	str	r2, [r3, #20]
 8002194:	619a      	str	r2, [r3, #24]

  LL_GPIO_InitTypeDef GPIO_InitStruct = {0};
 8002196:	463b      	mov	r3, r7
 8002198:	2200      	movs	r2, #0
 800219a:	601a      	str	r2, [r3, #0]
 800219c:	605a      	str	r2, [r3, #4]
 800219e:	609a      	str	r2, [r3, #8]
 80021a0:	60da      	str	r2, [r3, #12]
 80021a2:	611a      	str	r2, [r3, #16]

  /* Peripheral clock enable */
  LL_APB1_GRP1_EnableClock(LL_APB1_GRP1_PERIPH_USART3);
 80021a4:	f44f 2080 	mov.w	r0, #262144	; 0x40000
 80021a8:	f7ff fef8 	bl	8001f9c <LL_APB1_GRP1_EnableClock>

  LL_APB2_GRP1_EnableClock(LL_APB2_GRP1_PERIPH_GPIOB);
 80021ac:	2008      	movs	r0, #8
 80021ae:	f7ff ff0d 	bl	8001fcc <LL_APB2_GRP1_EnableClock>
  /**USART3 GPIO Configuration
  PB10   ------> USART3_TX
  PB11   ------> USART3_RX
  */
  GPIO_InitStruct.Pin = LL_GPIO_PIN_10;
 80021b2:	4b2c      	ldr	r3, [pc, #176]	; (8002264 <MX_USART3_UART_Init+0xe8>)
 80021b4:	603b      	str	r3, [r7, #0]
  GPIO_InitStruct.Mode = LL_GPIO_MODE_ALTERNATE;
 80021b6:	2309      	movs	r3, #9
 80021b8:	607b      	str	r3, [r7, #4]
  GPIO_InitStruct.Speed = LL_GPIO_SPEED_FREQ_HIGH;
 80021ba:	2303      	movs	r3, #3
 80021bc:	60bb      	str	r3, [r7, #8]
  GPIO_InitStruct.OutputType = LL_GPIO_OUTPUT_PUSHPULL;
 80021be:	2300      	movs	r3, #0
 80021c0:	60fb      	str	r3, [r7, #12]
  LL_GPIO_Init(GPIOB, &GPIO_InitStruct);
 80021c2:	463b      	mov	r3, r7
 80021c4:	4619      	mov	r1, r3
 80021c6:	4828      	ldr	r0, [pc, #160]	; (8002268 <MX_USART3_UART_Init+0xec>)
 80021c8:	f000 f9a3 	bl	8002512 <LL_GPIO_Init>

  GPIO_InitStruct.Pin = LL_GPIO_PIN_11;
 80021cc:	4b27      	ldr	r3, [pc, #156]	; (800226c <MX_USART3_UART_Init+0xf0>)
 80021ce:	603b      	str	r3, [r7, #0]
  GPIO_InitStruct.Mode = LL_GPIO_MODE_FLOATING;
 80021d0:	2304      	movs	r3, #4
 80021d2:	607b      	str	r3, [r7, #4]
  LL_GPIO_Init(GPIOB, &GPIO_InitStruct);
 80021d4:	463b      	mov	r3, r7
 80021d6:	4619      	mov	r1, r3
 80021d8:	4823      	ldr	r0, [pc, #140]	; (8002268 <MX_USART3_UART_Init+0xec>)
 80021da:	f000 f99a 	bl	8002512 <LL_GPIO_Init>

  /* USART3 DMA Init */

  /* USART3_TX Init */
  LL_DMA_SetDataTransferDirection(DMA1, LL_DMA_CHANNEL_2, LL_DMA_DIRECTION_MEMORY_TO_PERIPH);
 80021de:	2210      	movs	r2, #16
 80021e0:	2102      	movs	r1, #2
 80021e2:	4823      	ldr	r0, [pc, #140]	; (8002270 <MX_USART3_UART_Init+0xf4>)
 80021e4:	f7ff fdea 	bl	8001dbc <LL_DMA_SetDataTransferDirection>

  LL_DMA_SetChannelPriorityLevel(DMA1, LL_DMA_CHANNEL_2, LL_DMA_PRIORITY_LOW);
 80021e8:	2200      	movs	r2, #0
 80021ea:	2102      	movs	r1, #2
 80021ec:	4820      	ldr	r0, [pc, #128]	; (8002270 <MX_USART3_UART_Init+0xf4>)
 80021ee:	f7ff feb3 	bl	8001f58 <LL_DMA_SetChannelPriorityLevel>

  LL_DMA_SetMode(DMA1, LL_DMA_CHANNEL_2, LL_DMA_MODE_NORMAL);
 80021f2:	2200      	movs	r2, #0
 80021f4:	2102      	movs	r1, #2
 80021f6:	481e      	ldr	r0, [pc, #120]	; (8002270 <MX_USART3_UART_Init+0xf4>)
 80021f8:	f7ff fe04 	bl	8001e04 <LL_DMA_SetMode>

  LL_DMA_SetPeriphIncMode(DMA1, LL_DMA_CHANNEL_2, LL_DMA_PERIPH_NOINCREMENT);
 80021fc:	2200      	movs	r2, #0
 80021fe:	2102      	movs	r1, #2
 8002200:	481b      	ldr	r0, [pc, #108]	; (8002270 <MX_USART3_UART_Init+0xf4>)
 8002202:	f7ff fe21 	bl	8001e48 <LL_DMA_SetPeriphIncMode>

  LL_DMA_SetMemoryIncMode(DMA1, LL_DMA_CHANNEL_2, LL_DMA_MEMORY_INCREMENT);
 8002206:	2280      	movs	r2, #128	; 0x80
 8002208:	2102      	movs	r1, #2
 800220a:	4819      	ldr	r0, [pc, #100]	; (8002270 <MX_USART3_UART_Init+0xf4>)
 800220c:	f7ff fe3e 	bl	8001e8c <LL_DMA_SetMemoryIncMode>

  LL_DMA_SetPeriphSize(DMA1, LL_DMA_CHANNEL_2, LL_DMA_PDATAALIGN_BYTE);
 8002210:	2200      	movs	r2, #0
 8002212:	2102      	movs	r1, #2
 8002214:	4816      	ldr	r0, [pc, #88]	; (8002270 <MX_USART3_UART_Init+0xf4>)
 8002216:	f7ff fe5b 	bl	8001ed0 <LL_DMA_SetPeriphSize>

  LL_DMA_SetMemorySize(DMA1, LL_DMA_CHANNEL_2, LL_DMA_MDATAALIGN_BYTE);
 800221a:	2200      	movs	r2, #0
 800221c:	2102      	movs	r1, #2
 800221e:	4814      	ldr	r0, [pc, #80]	; (8002270 <MX_USART3_UART_Init+0xf4>)
 8002220:	f7ff fe78 	bl	8001f14 <LL_DMA_SetMemorySize>

  /* USER CODE BEGIN USART3_Init 1 */

  /* USER CODE END USART3_Init 1 */
  USART_InitStruct.BaudRate = 115200;
 8002224:	f44f 33e1 	mov.w	r3, #115200	; 0x1c200
 8002228:	617b      	str	r3, [r7, #20]
  USART_InitStruct.DataWidth = LL_USART_DATAWIDTH_8B;
 800222a:	2300      	movs	r3, #0
 800222c:	61bb      	str	r3, [r7, #24]
  USART_InitStruct.StopBits = LL_USART_STOPBITS_1;
 800222e:	2300      	movs	r3, #0
 8002230:	61fb      	str	r3, [r7, #28]
  USART_InitStruct.Parity = LL_USART_PARITY_NONE;
 8002232:	2300      	movs	r3, #0
 8002234:	623b      	str	r3, [r7, #32]
  USART_InitStruct.TransferDirection = LL_USART_DIRECTION_TX_RX;
 8002236:	230c      	movs	r3, #12
 8002238:	627b      	str	r3, [r7, #36]	; 0x24
  USART_InitStruct.HardwareFlowControl = LL_USART_HWCONTROL_NONE;
 800223a:	2300      	movs	r3, #0
 800223c:	62bb      	str	r3, [r7, #40]	; 0x28
  USART_InitStruct.OverSampling = LL_USART_OVERSAMPLING_16;
 800223e:	2300      	movs	r3, #0
 8002240:	62fb      	str	r3, [r7, #44]	; 0x2c
  LL_USART_Init(USART3, &USART_InitStruct);
 8002242:	f107 0314 	add.w	r3, r7, #20
 8002246:	4619      	mov	r1, r3
 8002248:	480a      	ldr	r0, [pc, #40]	; (8002274 <MX_USART3_UART_Init+0xf8>)
 800224a:	f000 fc91 	bl	8002b70 <LL_USART_Init>
  LL_USART_ConfigAsyncMode(USART3);
 800224e:	4809      	ldr	r0, [pc, #36]	; (8002274 <MX_USART3_UART_Init+0xf8>)
 8002250:	f7ff fee3 	bl	800201a <LL_USART_ConfigAsyncMode>
  LL_USART_Enable(USART3);
 8002254:	4807      	ldr	r0, [pc, #28]	; (8002274 <MX_USART3_UART_Init+0xf8>)
 8002256:	f7ff fed1 	bl	8001ffc <LL_USART_Enable>
  /* USER CODE BEGIN USART3_Init 2 */

  /* USER CODE END USART3_Init 2 */

}
 800225a:	bf00      	nop
 800225c:	3730      	adds	r7, #48	; 0x30
 800225e:	46bd      	mov	sp, r7
 8002260:	bd80      	pop	{r7, pc}
 8002262:	bf00      	nop
 8002264:	04040004 	.word	0x04040004
 8002268:	40010c00 	.word	0x40010c00
 800226c:	04080008 	.word	0x04080008
 8002270:	40020000 	.word	0x40020000
 8002274:	40004800 	.word	0x40004800

08002278 <USART1_ReadSbus_Callback>:

/* USER CODE BEGIN 1 */


void USART1_ReadSbus_Callback(void)
{
 8002278:	b580      	push	{r7, lr}
 800227a:	b082      	sub	sp, #8
 800227c:	af00      	add	r7, sp, #0
	G.Sbus.readSbusFrame( LL_USART_ReceiveData8(USART1) );
 800227e:	4807      	ldr	r0, [pc, #28]	; (800229c <USART1_ReadSbus_Callback+0x24>)
 8002280:	f7ff fee0 	bl	8002044 <LL_USART_ReceiveData8>
 8002284:	4603      	mov	r3, r0
 8002286:	71fb      	strb	r3, [r7, #7]
 8002288:	1dfb      	adds	r3, r7, #7
 800228a:	4619      	mov	r1, r3
 800228c:	4804      	ldr	r0, [pc, #16]	; (80022a0 <USART1_ReadSbus_Callback+0x28>)
 800228e:	f7ff fb21 	bl	80018d4 <_ZN3def4Sbus13readSbusFrameERKh>
}
 8002292:	bf00      	nop
 8002294:	3708      	adds	r7, #8
 8002296:	46bd      	mov	sp, r7
 8002298:	bd80      	pop	{r7, pc}
 800229a:	bf00      	nop
 800229c:	40013800 	.word	0x40013800
 80022a0:	2000008c 	.word	0x2000008c

080022a4 <USART1_Error_Callback>:

void USART1_Error_Callback(void)
{
 80022a4:	b580      	push	{r7, lr}
 80022a6:	af00      	add	r7, sp, #0
	G.Sbus.incrementUsartError();
 80022a8:	4802      	ldr	r0, [pc, #8]	; (80022b4 <USART1_Error_Callback+0x10>)
 80022aa:	f7ff fb65 	bl	8001978 <_ZN3def4Sbus19incrementUsartErrorEv>
}
 80022ae:	bf00      	nop
 80022b0:	bd80      	pop	{r7, pc}
 80022b2:	bf00      	nop
 80022b4:	2000008c 	.word	0x2000008c

080022b8 <_Z41__static_initialization_and_destruction_0ii>:
 80022b8:	b580      	push	{r7, lr}
 80022ba:	b082      	sub	sp, #8
 80022bc:	af00      	add	r7, sp, #0
 80022be:	6078      	str	r0, [r7, #4]
 80022c0:	6039      	str	r1, [r7, #0]
 80022c2:	687b      	ldr	r3, [r7, #4]
 80022c4:	2b01      	cmp	r3, #1
 80022c6:	d115      	bne.n	80022f4 <_Z41__static_initialization_and_destruction_0ii+0x3c>
 80022c8:	683b      	ldr	r3, [r7, #0]
 80022ca:	f64f 72ff 	movw	r2, #65535	; 0xffff
 80022ce:	4293      	cmp	r3, r2
 80022d0:	d110      	bne.n	80022f4 <_Z41__static_initialization_and_destruction_0ii+0x3c>
 80022d2:	4b17      	ldr	r3, [pc, #92]	; (8002330 <_Z41__static_initialization_and_destruction_0ii+0x78>)
 80022d4:	681b      	ldr	r3, [r3, #0]
 80022d6:	3301      	adds	r3, #1
 80022d8:	4a15      	ldr	r2, [pc, #84]	; (8002330 <_Z41__static_initialization_and_destruction_0ii+0x78>)
 80022da:	6013      	str	r3, [r2, #0]
 80022dc:	4b14      	ldr	r3, [pc, #80]	; (8002330 <_Z41__static_initialization_and_destruction_0ii+0x78>)
 80022de:	681b      	ldr	r3, [r3, #0]
 80022e0:	2b01      	cmp	r3, #1
 80022e2:	bf0c      	ite	eq
 80022e4:	2301      	moveq	r3, #1
 80022e6:	2300      	movne	r3, #0
 80022e8:	b2db      	uxtb	r3, r3
 80022ea:	2b00      	cmp	r3, #0
 80022ec:	d002      	beq.n	80022f4 <_Z41__static_initialization_and_destruction_0ii+0x3c>
 80022ee:	4811      	ldr	r0, [pc, #68]	; (8002334 <_Z41__static_initialization_and_destruction_0ii+0x7c>)
 80022f0:	f7fe ff20 	bl	8001134 <_ZN7GlobalsC1Ev>
 80022f4:	687b      	ldr	r3, [r7, #4]
 80022f6:	2b00      	cmp	r3, #0
 80022f8:	d115      	bne.n	8002326 <_Z41__static_initialization_and_destruction_0ii+0x6e>
 80022fa:	683b      	ldr	r3, [r7, #0]
 80022fc:	f64f 72ff 	movw	r2, #65535	; 0xffff
 8002300:	4293      	cmp	r3, r2
 8002302:	d110      	bne.n	8002326 <_Z41__static_initialization_and_destruction_0ii+0x6e>
 8002304:	4b0a      	ldr	r3, [pc, #40]	; (8002330 <_Z41__static_initialization_and_destruction_0ii+0x78>)
 8002306:	681b      	ldr	r3, [r3, #0]
 8002308:	3b01      	subs	r3, #1
 800230a:	4a09      	ldr	r2, [pc, #36]	; (8002330 <_Z41__static_initialization_and_destruction_0ii+0x78>)
 800230c:	6013      	str	r3, [r2, #0]
 800230e:	4b08      	ldr	r3, [pc, #32]	; (8002330 <_Z41__static_initialization_and_destruction_0ii+0x78>)
 8002310:	681b      	ldr	r3, [r3, #0]
 8002312:	2b00      	cmp	r3, #0
 8002314:	bf0c      	ite	eq
 8002316:	2301      	moveq	r3, #1
 8002318:	2300      	movne	r3, #0
 800231a:	b2db      	uxtb	r3, r3
 800231c:	2b00      	cmp	r3, #0
 800231e:	d002      	beq.n	8002326 <_Z41__static_initialization_and_destruction_0ii+0x6e>
 8002320:	4804      	ldr	r0, [pc, #16]	; (8002334 <_Z41__static_initialization_and_destruction_0ii+0x7c>)
 8002322:	f7fe ffbb 	bl	800129c <_ZN7GlobalsD1Ev>
 8002326:	bf00      	nop
 8002328:	3708      	adds	r7, #8
 800232a:	46bd      	mov	sp, r7
 800232c:	bd80      	pop	{r7, pc}
 800232e:	bf00      	nop
 8002330:	200000f4 	.word	0x200000f4
 8002334:	20000084 	.word	0x20000084

08002338 <_GLOBAL__sub_I_MX_USART1_UART_Init>:
 8002338:	b580      	push	{r7, lr}
 800233a:	af00      	add	r7, sp, #0
 800233c:	f64f 71ff 	movw	r1, #65535	; 0xffff
 8002340:	2001      	movs	r0, #1
 8002342:	f7ff ffb9 	bl	80022b8 <_Z41__static_initialization_and_destruction_0ii>
 8002346:	bd80      	pop	{r7, pc}

08002348 <_GLOBAL__sub_D_MX_USART1_UART_Init>:
 8002348:	b580      	push	{r7, lr}
 800234a:	af00      	add	r7, sp, #0
 800234c:	f64f 71ff 	movw	r1, #65535	; 0xffff
 8002350:	2000      	movs	r0, #0
 8002352:	f7ff ffb1 	bl	80022b8 <_Z41__static_initialization_and_destruction_0ii>
 8002356:	bd80      	pop	{r7, pc}

08002358 <Reset_Handler>:
  .weak Reset_Handler
  .type Reset_Handler, %function
Reset_Handler:

/* Call the clock system initialization function.*/
    bl  SystemInit
 8002358:	f7ff fc34 	bl	8001bc4 <SystemInit>

/* Copy the data segment initializers from flash to SRAM */
  ldr r0, =_sdata
 800235c:	480b      	ldr	r0, [pc, #44]	; (800238c <LoopFillZerobss+0xe>)
  ldr r1, =_edata
 800235e:	490c      	ldr	r1, [pc, #48]	; (8002390 <LoopFillZerobss+0x12>)
  ldr r2, =_sidata
 8002360:	4a0c      	ldr	r2, [pc, #48]	; (8002394 <LoopFillZerobss+0x16>)
  movs r3, #0
 8002362:	2300      	movs	r3, #0
  b LoopCopyDataInit
 8002364:	e002      	b.n	800236c <LoopCopyDataInit>

08002366 <CopyDataInit>:

CopyDataInit:
  ldr r4, [r2, r3]
 8002366:	58d4      	ldr	r4, [r2, r3]
  str r4, [r0, r3]
 8002368:	50c4      	str	r4, [r0, r3]
  adds r3, r3, #4
 800236a:	3304      	adds	r3, #4

0800236c <LoopCopyDataInit>:

LoopCopyDataInit:
  adds r4, r0, r3
 800236c:	18c4      	adds	r4, r0, r3
  cmp r4, r1
 800236e:	428c      	cmp	r4, r1
  bcc CopyDataInit
 8002370:	d3f9      	bcc.n	8002366 <CopyDataInit>
  
/* Zero fill the bss segment. */
  ldr r2, =_sbss
 8002372:	4a09      	ldr	r2, [pc, #36]	; (8002398 <LoopFillZerobss+0x1a>)
  ldr r4, =_ebss
 8002374:	4c09      	ldr	r4, [pc, #36]	; (800239c <LoopFillZerobss+0x1e>)
  movs r3, #0
 8002376:	2300      	movs	r3, #0
  b LoopFillZerobss
 8002378:	e001      	b.n	800237e <LoopFillZerobss>

0800237a <FillZerobss>:

FillZerobss:
  str  r3, [r2]
 800237a:	6013      	str	r3, [r2, #0]
  adds r2, r2, #4
 800237c:	3204      	adds	r2, #4

0800237e <LoopFillZerobss>:

LoopFillZerobss:
  cmp r2, r4
 800237e:	42a2      	cmp	r2, r4
  bcc FillZerobss
 8002380:	d3fb      	bcc.n	800237a <FillZerobss>

/* Call static constructors */
    bl __libc_init_array
 8002382:	f000 fc8f 	bl	8002ca4 <__libc_init_array>
/* Call the application's entry point.*/
  bl main
 8002386:	f7fe fee9 	bl	800115c <main>
  bx lr
 800238a:	4770      	bx	lr
  ldr r0, =_sdata
 800238c:	20000000 	.word	0x20000000
  ldr r1, =_edata
 8002390:	20000068 	.word	0x20000068
  ldr r2, =_sidata
 8002394:	08002e50 	.word	0x08002e50
  ldr r2, =_sbss
 8002398:	20000068 	.word	0x20000068
  ldr r4, =_ebss
 800239c:	20000100 	.word	0x20000100

080023a0 <ADC1_2_IRQHandler>:
 * @retval : None
*/
    .section .text.Default_Handler,"ax",%progbits
Default_Handler:
Infinite_Loop:
  b Infinite_Loop
 80023a0:	e7fe      	b.n	80023a0 <ADC1_2_IRQHandler>

080023a2 <LL_GPIO_SetPinMode>:
{
 80023a2:	b490      	push	{r4, r7}
 80023a4:	b088      	sub	sp, #32
 80023a6:	af00      	add	r7, sp, #0
 80023a8:	60f8      	str	r0, [r7, #12]
 80023aa:	60b9      	str	r1, [r7, #8]
 80023ac:	607a      	str	r2, [r7, #4]
  register uint32_t *pReg = (uint32_t *)((uint32_t)((uint32_t)(&GPIOx->CRL) + (Pin >> 24)));
 80023ae:	68fb      	ldr	r3, [r7, #12]
 80023b0:	461a      	mov	r2, r3
 80023b2:	68bb      	ldr	r3, [r7, #8]
 80023b4:	0e1b      	lsrs	r3, r3, #24
 80023b6:	4413      	add	r3, r2
 80023b8:	461c      	mov	r4, r3
  MODIFY_REG(*pReg, ((GPIO_CRL_CNF0 | GPIO_CRL_MODE0) << (POSITION_VAL(Pin) * 4U)), (Mode << (POSITION_VAL(Pin) * 4U)));
 80023ba:	6822      	ldr	r2, [r4, #0]
 80023bc:	68bb      	ldr	r3, [r7, #8]
 80023be:	617b      	str	r3, [r7, #20]
   __ASM volatile ("rbit %0, %1" : "=r" (result) : "r" (value) );
 80023c0:	697b      	ldr	r3, [r7, #20]
 80023c2:	fa93 f3a3 	rbit	r3, r3
 80023c6:	613b      	str	r3, [r7, #16]
  return result;
 80023c8:	693b      	ldr	r3, [r7, #16]
 80023ca:	fab3 f383 	clz	r3, r3
 80023ce:	b2db      	uxtb	r3, r3
 80023d0:	009b      	lsls	r3, r3, #2
 80023d2:	210f      	movs	r1, #15
 80023d4:	fa01 f303 	lsl.w	r3, r1, r3
 80023d8:	43db      	mvns	r3, r3
 80023da:	401a      	ands	r2, r3
 80023dc:	68bb      	ldr	r3, [r7, #8]
 80023de:	61fb      	str	r3, [r7, #28]
   __ASM volatile ("rbit %0, %1" : "=r" (result) : "r" (value) );
 80023e0:	69fb      	ldr	r3, [r7, #28]
 80023e2:	fa93 f3a3 	rbit	r3, r3
 80023e6:	61bb      	str	r3, [r7, #24]
  return result;
 80023e8:	69bb      	ldr	r3, [r7, #24]
 80023ea:	fab3 f383 	clz	r3, r3
 80023ee:	b2db      	uxtb	r3, r3
 80023f0:	009b      	lsls	r3, r3, #2
 80023f2:	6879      	ldr	r1, [r7, #4]
 80023f4:	fa01 f303 	lsl.w	r3, r1, r3
 80023f8:	4313      	orrs	r3, r2
 80023fa:	6023      	str	r3, [r4, #0]
}
 80023fc:	bf00      	nop
 80023fe:	3720      	adds	r7, #32
 8002400:	46bd      	mov	sp, r7
 8002402:	bc90      	pop	{r4, r7}
 8002404:	4770      	bx	lr

08002406 <LL_GPIO_SetPinSpeed>:
{
 8002406:	b490      	push	{r4, r7}
 8002408:	b088      	sub	sp, #32
 800240a:	af00      	add	r7, sp, #0
 800240c:	60f8      	str	r0, [r7, #12]
 800240e:	60b9      	str	r1, [r7, #8]
 8002410:	607a      	str	r2, [r7, #4]
  register uint32_t *pReg = (uint32_t *)((uint32_t)((uint32_t)(&GPIOx->CRL) + (Pin >> 24)));
 8002412:	68fb      	ldr	r3, [r7, #12]
 8002414:	461a      	mov	r2, r3
 8002416:	68bb      	ldr	r3, [r7, #8]
 8002418:	0e1b      	lsrs	r3, r3, #24
 800241a:	4413      	add	r3, r2
 800241c:	461c      	mov	r4, r3
  MODIFY_REG(*pReg, (GPIO_CRL_MODE0 << (POSITION_VAL(Pin) * 4U)),
 800241e:	6822      	ldr	r2, [r4, #0]
 8002420:	68bb      	ldr	r3, [r7, #8]
 8002422:	617b      	str	r3, [r7, #20]
   __ASM volatile ("rbit %0, %1" : "=r" (result) : "r" (value) );
 8002424:	697b      	ldr	r3, [r7, #20]
 8002426:	fa93 f3a3 	rbit	r3, r3
 800242a:	613b      	str	r3, [r7, #16]
  return result;
 800242c:	693b      	ldr	r3, [r7, #16]
 800242e:	fab3 f383 	clz	r3, r3
 8002432:	b2db      	uxtb	r3, r3
 8002434:	009b      	lsls	r3, r3, #2
 8002436:	2103      	movs	r1, #3
 8002438:	fa01 f303 	lsl.w	r3, r1, r3
 800243c:	43db      	mvns	r3, r3
 800243e:	401a      	ands	r2, r3
 8002440:	68bb      	ldr	r3, [r7, #8]
 8002442:	61fb      	str	r3, [r7, #28]
   __ASM volatile ("rbit %0, %1" : "=r" (result) : "r" (value) );
 8002444:	69fb      	ldr	r3, [r7, #28]
 8002446:	fa93 f3a3 	rbit	r3, r3
 800244a:	61bb      	str	r3, [r7, #24]
  return result;
 800244c:	69bb      	ldr	r3, [r7, #24]
 800244e:	fab3 f383 	clz	r3, r3
 8002452:	b2db      	uxtb	r3, r3
 8002454:	009b      	lsls	r3, r3, #2
 8002456:	6879      	ldr	r1, [r7, #4]
 8002458:	fa01 f303 	lsl.w	r3, r1, r3
 800245c:	4313      	orrs	r3, r2
 800245e:	6023      	str	r3, [r4, #0]
}
 8002460:	bf00      	nop
 8002462:	3720      	adds	r7, #32
 8002464:	46bd      	mov	sp, r7
 8002466:	bc90      	pop	{r4, r7}
 8002468:	4770      	bx	lr

0800246a <LL_GPIO_SetPinOutputType>:
{
 800246a:	b490      	push	{r4, r7}
 800246c:	b088      	sub	sp, #32
 800246e:	af00      	add	r7, sp, #0
 8002470:	60f8      	str	r0, [r7, #12]
 8002472:	60b9      	str	r1, [r7, #8]
 8002474:	607a      	str	r2, [r7, #4]
  register uint32_t *pReg = (uint32_t *)((uint32_t)((uint32_t)(&GPIOx->CRL) + (Pin >> 24)));
 8002476:	68fb      	ldr	r3, [r7, #12]
 8002478:	461a      	mov	r2, r3
 800247a:	68bb      	ldr	r3, [r7, #8]
 800247c:	0e1b      	lsrs	r3, r3, #24
 800247e:	4413      	add	r3, r2
 8002480:	461c      	mov	r4, r3
  MODIFY_REG(*pReg, (GPIO_CRL_CNF0_0 << (POSITION_VAL(Pin) * 4U)),
 8002482:	6822      	ldr	r2, [r4, #0]
 8002484:	68bb      	ldr	r3, [r7, #8]
 8002486:	617b      	str	r3, [r7, #20]
   __ASM volatile ("rbit %0, %1" : "=r" (result) : "r" (value) );
 8002488:	697b      	ldr	r3, [r7, #20]
 800248a:	fa93 f3a3 	rbit	r3, r3
 800248e:	613b      	str	r3, [r7, #16]
  return result;
 8002490:	693b      	ldr	r3, [r7, #16]
 8002492:	fab3 f383 	clz	r3, r3
 8002496:	b2db      	uxtb	r3, r3
 8002498:	009b      	lsls	r3, r3, #2
 800249a:	2104      	movs	r1, #4
 800249c:	fa01 f303 	lsl.w	r3, r1, r3
 80024a0:	43db      	mvns	r3, r3
 80024a2:	401a      	ands	r2, r3
 80024a4:	68bb      	ldr	r3, [r7, #8]
 80024a6:	61fb      	str	r3, [r7, #28]
   __ASM volatile ("rbit %0, %1" : "=r" (result) : "r" (value) );
 80024a8:	69fb      	ldr	r3, [r7, #28]
 80024aa:	fa93 f3a3 	rbit	r3, r3
 80024ae:	61bb      	str	r3, [r7, #24]
  return result;
 80024b0:	69bb      	ldr	r3, [r7, #24]
 80024b2:	fab3 f383 	clz	r3, r3
 80024b6:	b2db      	uxtb	r3, r3
 80024b8:	009b      	lsls	r3, r3, #2
 80024ba:	6879      	ldr	r1, [r7, #4]
 80024bc:	fa01 f303 	lsl.w	r3, r1, r3
 80024c0:	4313      	orrs	r3, r2
 80024c2:	6023      	str	r3, [r4, #0]
}
 80024c4:	bf00      	nop
 80024c6:	3720      	adds	r7, #32
 80024c8:	46bd      	mov	sp, r7
 80024ca:	bc90      	pop	{r4, r7}
 80024cc:	4770      	bx	lr

080024ce <LL_GPIO_SetPinPull>:
{
 80024ce:	b480      	push	{r7}
 80024d0:	b087      	sub	sp, #28
 80024d2:	af00      	add	r7, sp, #0
 80024d4:	60f8      	str	r0, [r7, #12]
 80024d6:	60b9      	str	r1, [r7, #8]
 80024d8:	607a      	str	r2, [r7, #4]
  MODIFY_REG(GPIOx->ODR, (Pin >> GPIO_PIN_MASK_POS), Pull << (POSITION_VAL(Pin >> GPIO_PIN_MASK_POS)));
 80024da:	68fb      	ldr	r3, [r7, #12]
 80024dc:	68da      	ldr	r2, [r3, #12]
 80024de:	68bb      	ldr	r3, [r7, #8]
 80024e0:	0a1b      	lsrs	r3, r3, #8
 80024e2:	43db      	mvns	r3, r3
 80024e4:	401a      	ands	r2, r3
 80024e6:	68bb      	ldr	r3, [r7, #8]
 80024e8:	0a1b      	lsrs	r3, r3, #8
 80024ea:	617b      	str	r3, [r7, #20]
   __ASM volatile ("rbit %0, %1" : "=r" (result) : "r" (value) );
 80024ec:	697b      	ldr	r3, [r7, #20]
 80024ee:	fa93 f3a3 	rbit	r3, r3
 80024f2:	613b      	str	r3, [r7, #16]
  return result;
 80024f4:	693b      	ldr	r3, [r7, #16]
 80024f6:	fab3 f383 	clz	r3, r3
 80024fa:	b2db      	uxtb	r3, r3
 80024fc:	4619      	mov	r1, r3
 80024fe:	687b      	ldr	r3, [r7, #4]
 8002500:	408b      	lsls	r3, r1
 8002502:	431a      	orrs	r2, r3
 8002504:	68fb      	ldr	r3, [r7, #12]
 8002506:	60da      	str	r2, [r3, #12]
}
 8002508:	bf00      	nop
 800250a:	371c      	adds	r7, #28
 800250c:	46bd      	mov	sp, r7
 800250e:	bc80      	pop	{r7}
 8002510:	4770      	bx	lr

08002512 <LL_GPIO_Init>:
  * @retval An ErrorStatus enumeration value:
  *          - SUCCESS: GPIO registers are initialized according to GPIO_InitStruct content
  *          - ERROR:   Not applicable
  */
ErrorStatus LL_GPIO_Init(GPIO_TypeDef *GPIOx, LL_GPIO_InitTypeDef *GPIO_InitStruct)
{
 8002512:	b580      	push	{r7, lr}
 8002514:	b088      	sub	sp, #32
 8002516:	af00      	add	r7, sp, #0
 8002518:	6078      	str	r0, [r7, #4]
 800251a:	6039      	str	r1, [r7, #0]
  assert_param(IS_LL_GPIO_PIN(GPIO_InitStruct->Pin));

  /* ------------------------- Configure the port pins ---------------- */
  /* Initialize  pinpos on first pin set */

  pinmask = ((GPIO_InitStruct->Pin) << GPIO_PIN_MASK_POS) >> GPIO_PIN_NB;
 800251c:	683b      	ldr	r3, [r7, #0]
 800251e:	681b      	ldr	r3, [r3, #0]
 8002520:	021b      	lsls	r3, r3, #8
 8002522:	0c1b      	lsrs	r3, r3, #16
 8002524:	617b      	str	r3, [r7, #20]
 8002526:	697b      	ldr	r3, [r7, #20]
 8002528:	613b      	str	r3, [r7, #16]
   __ASM volatile ("rbit %0, %1" : "=r" (result) : "r" (value) );
 800252a:	693b      	ldr	r3, [r7, #16]
 800252c:	fa93 f3a3 	rbit	r3, r3
 8002530:	60fb      	str	r3, [r7, #12]
  return result;
 8002532:	68fb      	ldr	r3, [r7, #12]
  pinpos = POSITION_VAL(pinmask);
 8002534:	fab3 f383 	clz	r3, r3
 8002538:	b2db      	uxtb	r3, r3
 800253a:	61fb      	str	r3, [r7, #28]

  /* Configure the port pins */
  while ((pinmask  >> pinpos) != 0u)
 800253c:	e044      	b.n	80025c8 <LL_GPIO_Init+0xb6>
  {
    /* skip if bit is not set */
    if ((pinmask & (1u << pinpos)) != 0u)
 800253e:	2201      	movs	r2, #1
 8002540:	69fb      	ldr	r3, [r7, #28]
 8002542:	409a      	lsls	r2, r3
 8002544:	697b      	ldr	r3, [r7, #20]
 8002546:	4013      	ands	r3, r2
 8002548:	2b00      	cmp	r3, #0
 800254a:	d03a      	beq.n	80025c2 <LL_GPIO_Init+0xb0>
    {
      /* Get current io position */
      if (pinpos < GPIO_PIN_MASK_POS)
 800254c:	69fb      	ldr	r3, [r7, #28]
 800254e:	2b07      	cmp	r3, #7
 8002550:	d806      	bhi.n	8002560 <LL_GPIO_Init+0x4e>
      {
        currentpin = (0x00000101uL << pinpos);
 8002552:	f240 1201 	movw	r2, #257	; 0x101
 8002556:	69fb      	ldr	r3, [r7, #28]
 8002558:	fa02 f303 	lsl.w	r3, r2, r3
 800255c:	61bb      	str	r3, [r7, #24]
 800255e:	e008      	b.n	8002572 <LL_GPIO_Init+0x60>
      }
      else
      {
        currentpin = ((0x00010001u << (pinpos - GPIO_PIN_MASK_POS)) | 0x04000000u);
 8002560:	69fb      	ldr	r3, [r7, #28]
 8002562:	3b08      	subs	r3, #8
 8002564:	f04f 1201 	mov.w	r2, #65537	; 0x10001
 8002568:	fa02 f303 	lsl.w	r3, r2, r3
 800256c:	f043 6380 	orr.w	r3, r3, #67108864	; 0x4000000
 8002570:	61bb      	str	r3, [r7, #24]
      }

      if (GPIO_InitStruct->Mode == LL_GPIO_MODE_INPUT)
 8002572:	683b      	ldr	r3, [r7, #0]
 8002574:	685b      	ldr	r3, [r3, #4]
 8002576:	2b08      	cmp	r3, #8
 8002578:	d106      	bne.n	8002588 <LL_GPIO_Init+0x76>
      {
        /* Check The Pull parameter */
        assert_param(IS_LL_GPIO_PULL(GPIO_InitStruct->Pull));

        /* Pull-up Pull-down resistor configuration*/
        LL_GPIO_SetPinPull(GPIOx, currentpin, GPIO_InitStruct->Pull);
 800257a:	683b      	ldr	r3, [r7, #0]
 800257c:	691b      	ldr	r3, [r3, #16]
 800257e:	461a      	mov	r2, r3
 8002580:	69b9      	ldr	r1, [r7, #24]
 8002582:	6878      	ldr	r0, [r7, #4]
 8002584:	f7ff ffa3 	bl	80024ce <LL_GPIO_SetPinPull>
      
      /* Check Pin Mode parameters */
      assert_param(IS_LL_GPIO_MODE(GPIO_InitStruct->Mode));
      
      /* Pin Mode configuration */
      LL_GPIO_SetPinMode(GPIOx, currentpin, GPIO_InitStruct->Mode);
 8002588:	683b      	ldr	r3, [r7, #0]
 800258a:	685b      	ldr	r3, [r3, #4]
 800258c:	461a      	mov	r2, r3
 800258e:	69b9      	ldr	r1, [r7, #24]
 8002590:	6878      	ldr	r0, [r7, #4]
 8002592:	f7ff ff06 	bl	80023a2 <LL_GPIO_SetPinMode>

      if ((GPIO_InitStruct->Mode == LL_GPIO_MODE_OUTPUT) || (GPIO_InitStruct->Mode == LL_GPIO_MODE_ALTERNATE))
 8002596:	683b      	ldr	r3, [r7, #0]
 8002598:	685b      	ldr	r3, [r3, #4]
 800259a:	2b01      	cmp	r3, #1
 800259c:	d003      	beq.n	80025a6 <LL_GPIO_Init+0x94>
 800259e:	683b      	ldr	r3, [r7, #0]
 80025a0:	685b      	ldr	r3, [r3, #4]
 80025a2:	2b09      	cmp	r3, #9
 80025a4:	d10d      	bne.n	80025c2 <LL_GPIO_Init+0xb0>
        /* Check speed and Output mode parameters */
        assert_param(IS_LL_GPIO_SPEED(GPIO_InitStruct->Speed));
        assert_param(IS_LL_GPIO_OUTPUT_TYPE(GPIO_InitStruct->OutputType));

        /* Speed mode configuration */
        LL_GPIO_SetPinSpeed(GPIOx, currentpin, GPIO_InitStruct->Speed);
 80025a6:	683b      	ldr	r3, [r7, #0]
 80025a8:	689b      	ldr	r3, [r3, #8]
 80025aa:	461a      	mov	r2, r3
 80025ac:	69b9      	ldr	r1, [r7, #24]
 80025ae:	6878      	ldr	r0, [r7, #4]
 80025b0:	f7ff ff29 	bl	8002406 <LL_GPIO_SetPinSpeed>

        /* Output mode configuration*/
        LL_GPIO_SetPinOutputType(GPIOx, currentpin, GPIO_InitStruct->OutputType);
 80025b4:	683b      	ldr	r3, [r7, #0]
 80025b6:	68db      	ldr	r3, [r3, #12]
 80025b8:	461a      	mov	r2, r3
 80025ba:	69b9      	ldr	r1, [r7, #24]
 80025bc:	6878      	ldr	r0, [r7, #4]
 80025be:	f7ff ff54 	bl	800246a <LL_GPIO_SetPinOutputType>
      }
    }
    pinpos++;
 80025c2:	69fb      	ldr	r3, [r7, #28]
 80025c4:	3301      	adds	r3, #1
 80025c6:	61fb      	str	r3, [r7, #28]
  while ((pinmask  >> pinpos) != 0u)
 80025c8:	697a      	ldr	r2, [r7, #20]
 80025ca:	69fb      	ldr	r3, [r7, #28]
 80025cc:	fa22 f303 	lsr.w	r3, r2, r3
 80025d0:	2b00      	cmp	r3, #0
 80025d2:	d1b4      	bne.n	800253e <LL_GPIO_Init+0x2c>
  }
  return (SUCCESS);
 80025d4:	2300      	movs	r3, #0
}
 80025d6:	4618      	mov	r0, r3
 80025d8:	3720      	adds	r7, #32
 80025da:	46bd      	mov	sp, r7
 80025dc:	bd80      	pop	{r7, pc}

080025de <LL_I2C_Enable>:
{
 80025de:	b480      	push	{r7}
 80025e0:	b083      	sub	sp, #12
 80025e2:	af00      	add	r7, sp, #0
 80025e4:	6078      	str	r0, [r7, #4]
  SET_BIT(I2Cx->CR1, I2C_CR1_PE);
 80025e6:	687b      	ldr	r3, [r7, #4]
 80025e8:	681b      	ldr	r3, [r3, #0]
 80025ea:	f043 0201 	orr.w	r2, r3, #1
 80025ee:	687b      	ldr	r3, [r7, #4]
 80025f0:	601a      	str	r2, [r3, #0]
}
 80025f2:	bf00      	nop
 80025f4:	370c      	adds	r7, #12
 80025f6:	46bd      	mov	sp, r7
 80025f8:	bc80      	pop	{r7}
 80025fa:	4770      	bx	lr

080025fc <LL_I2C_Disable>:
{
 80025fc:	b480      	push	{r7}
 80025fe:	b083      	sub	sp, #12
 8002600:	af00      	add	r7, sp, #0
 8002602:	6078      	str	r0, [r7, #4]
  CLEAR_BIT(I2Cx->CR1, I2C_CR1_PE);
 8002604:	687b      	ldr	r3, [r7, #4]
 8002606:	681b      	ldr	r3, [r3, #0]
 8002608:	f023 0201 	bic.w	r2, r3, #1
 800260c:	687b      	ldr	r3, [r7, #4]
 800260e:	601a      	str	r2, [r3, #0]
}
 8002610:	bf00      	nop
 8002612:	370c      	adds	r7, #12
 8002614:	46bd      	mov	sp, r7
 8002616:	bc80      	pop	{r7}
 8002618:	4770      	bx	lr

0800261a <LL_I2C_SetOwnAddress1>:
{
 800261a:	b480      	push	{r7}
 800261c:	b085      	sub	sp, #20
 800261e:	af00      	add	r7, sp, #0
 8002620:	60f8      	str	r0, [r7, #12]
 8002622:	60b9      	str	r1, [r7, #8]
 8002624:	607a      	str	r2, [r7, #4]
  MODIFY_REG(I2Cx->OAR1, I2C_OAR1_ADD0 | I2C_OAR1_ADD1_7 | I2C_OAR1_ADD8_9 | I2C_OAR1_ADDMODE, OwnAddress1 | OwnAddrSize);
 8002626:	68fb      	ldr	r3, [r7, #12]
 8002628:	689b      	ldr	r3, [r3, #8]
 800262a:	f423 4303 	bic.w	r3, r3, #33536	; 0x8300
 800262e:	f023 03ff 	bic.w	r3, r3, #255	; 0xff
 8002632:	68b9      	ldr	r1, [r7, #8]
 8002634:	687a      	ldr	r2, [r7, #4]
 8002636:	430a      	orrs	r2, r1
 8002638:	431a      	orrs	r2, r3
 800263a:	68fb      	ldr	r3, [r7, #12]
 800263c:	609a      	str	r2, [r3, #8]
}
 800263e:	bf00      	nop
 8002640:	3714      	adds	r7, #20
 8002642:	46bd      	mov	sp, r7
 8002644:	bc80      	pop	{r7}
 8002646:	4770      	bx	lr

08002648 <LL_I2C_ConfigSpeed>:
  *         @arg @ref LL_I2C_DUTYCYCLE_16_9
  * @retval None
  */
__STATIC_INLINE void LL_I2C_ConfigSpeed(I2C_TypeDef *I2Cx, uint32_t PeriphClock, uint32_t ClockSpeed,
                                        uint32_t DutyCycle)
{
 8002648:	b480      	push	{r7}
 800264a:	b087      	sub	sp, #28
 800264c:	af00      	add	r7, sp, #0
 800264e:	60f8      	str	r0, [r7, #12]
 8002650:	60b9      	str	r1, [r7, #8]
 8002652:	607a      	str	r2, [r7, #4]
 8002654:	603b      	str	r3, [r7, #0]
  uint32_t freqrange = 0x0U;
 8002656:	2300      	movs	r3, #0
 8002658:	613b      	str	r3, [r7, #16]
  uint32_t clockconfig = 0x0U;
 800265a:	2300      	movs	r3, #0
 800265c:	617b      	str	r3, [r7, #20]

  /* Compute frequency range */
  freqrange = __LL_I2C_FREQ_HZ_TO_MHZ(PeriphClock);
 800265e:	68bb      	ldr	r3, [r7, #8]
 8002660:	4a41      	ldr	r2, [pc, #260]	; (8002768 <LL_I2C_ConfigSpeed+0x120>)
 8002662:	fba2 2303 	umull	r2, r3, r2, r3
 8002666:	0c9b      	lsrs	r3, r3, #18
 8002668:	613b      	str	r3, [r7, #16]

  /* Configure I2Cx: Frequency range register */
  MODIFY_REG(I2Cx->CR2, I2C_CR2_FREQ, freqrange);
 800266a:	68fb      	ldr	r3, [r7, #12]
 800266c:	685b      	ldr	r3, [r3, #4]
 800266e:	f023 023f 	bic.w	r2, r3, #63	; 0x3f
 8002672:	693b      	ldr	r3, [r7, #16]
 8002674:	431a      	orrs	r2, r3
 8002676:	68fb      	ldr	r3, [r7, #12]
 8002678:	605a      	str	r2, [r3, #4]

  /* Configure I2Cx: Rise Time register */
  MODIFY_REG(I2Cx->TRISE, I2C_TRISE_TRISE, __LL_I2C_RISE_TIME(freqrange, ClockSpeed));
 800267a:	68fb      	ldr	r3, [r7, #12]
 800267c:	6a1b      	ldr	r3, [r3, #32]
 800267e:	f023 023f 	bic.w	r2, r3, #63	; 0x3f
 8002682:	687b      	ldr	r3, [r7, #4]
 8002684:	4939      	ldr	r1, [pc, #228]	; (800276c <LL_I2C_ConfigSpeed+0x124>)
 8002686:	428b      	cmp	r3, r1
 8002688:	d802      	bhi.n	8002690 <LL_I2C_ConfigSpeed+0x48>
 800268a:	693b      	ldr	r3, [r7, #16]
 800268c:	3301      	adds	r3, #1
 800268e:	e009      	b.n	80026a4 <LL_I2C_ConfigSpeed+0x5c>
 8002690:	693b      	ldr	r3, [r7, #16]
 8002692:	f44f 7196 	mov.w	r1, #300	; 0x12c
 8002696:	fb01 f303 	mul.w	r3, r1, r3
 800269a:	4935      	ldr	r1, [pc, #212]	; (8002770 <LL_I2C_ConfigSpeed+0x128>)
 800269c:	fba1 1303 	umull	r1, r3, r1, r3
 80026a0:	099b      	lsrs	r3, r3, #6
 80026a2:	3301      	adds	r3, #1
 80026a4:	431a      	orrs	r2, r3
 80026a6:	68fb      	ldr	r3, [r7, #12]
 80026a8:	621a      	str	r2, [r3, #32]

  /* Configure Speed mode, Duty Cycle and Clock control register value */
  if (ClockSpeed > LL_I2C_MAX_SPEED_STANDARD)
 80026aa:	687b      	ldr	r3, [r7, #4]
 80026ac:	4a2f      	ldr	r2, [pc, #188]	; (800276c <LL_I2C_ConfigSpeed+0x124>)
 80026ae:	4293      	cmp	r3, r2
 80026b0:	d939      	bls.n	8002726 <LL_I2C_ConfigSpeed+0xde>
  {
    /* Set Speed mode at fast and duty cycle for Clock Speed request in fast clock range */
    clockconfig = LL_I2C_CLOCK_SPEED_FAST_MODE                                          | \
 80026b2:	683b      	ldr	r3, [r7, #0]
 80026b4:	2b00      	cmp	r3, #0
 80026b6:	d117      	bne.n	80026e8 <LL_I2C_ConfigSpeed+0xa0>
                  __LL_I2C_SPEED_FAST_TO_CCR(PeriphClock, ClockSpeed, DutyCycle)        | \
 80026b8:	687a      	ldr	r2, [r7, #4]
 80026ba:	4613      	mov	r3, r2
 80026bc:	005b      	lsls	r3, r3, #1
 80026be:	4413      	add	r3, r2
 80026c0:	68ba      	ldr	r2, [r7, #8]
 80026c2:	fbb2 f3f3 	udiv	r3, r2, r3
 80026c6:	f3c3 030b 	ubfx	r3, r3, #0, #12
    clockconfig = LL_I2C_CLOCK_SPEED_FAST_MODE                                          | \
 80026ca:	2b00      	cmp	r3, #0
 80026cc:	d009      	beq.n	80026e2 <LL_I2C_ConfigSpeed+0x9a>
                  __LL_I2C_SPEED_FAST_TO_CCR(PeriphClock, ClockSpeed, DutyCycle)        | \
 80026ce:	687a      	ldr	r2, [r7, #4]
 80026d0:	4613      	mov	r3, r2
 80026d2:	005b      	lsls	r3, r3, #1
 80026d4:	4413      	add	r3, r2
 80026d6:	68ba      	ldr	r2, [r7, #8]
 80026d8:	fbb2 f3f3 	udiv	r3, r2, r3
    clockconfig = LL_I2C_CLOCK_SPEED_FAST_MODE                                          | \
 80026dc:	f443 4300 	orr.w	r3, r3, #32768	; 0x8000
 80026e0:	e01d      	b.n	800271e <LL_I2C_ConfigSpeed+0xd6>
 80026e2:	f248 0301 	movw	r3, #32769	; 0x8001
 80026e6:	e01a      	b.n	800271e <LL_I2C_ConfigSpeed+0xd6>
                  __LL_I2C_SPEED_FAST_TO_CCR(PeriphClock, ClockSpeed, DutyCycle)        | \
 80026e8:	687a      	ldr	r2, [r7, #4]
 80026ea:	4613      	mov	r3, r2
 80026ec:	009b      	lsls	r3, r3, #2
 80026ee:	4413      	add	r3, r2
 80026f0:	009a      	lsls	r2, r3, #2
 80026f2:	4413      	add	r3, r2
 80026f4:	68ba      	ldr	r2, [r7, #8]
 80026f6:	fbb2 f3f3 	udiv	r3, r2, r3
 80026fa:	f3c3 030b 	ubfx	r3, r3, #0, #12
    clockconfig = LL_I2C_CLOCK_SPEED_FAST_MODE                                          | \
 80026fe:	2b00      	cmp	r3, #0
 8002700:	d00b      	beq.n	800271a <LL_I2C_ConfigSpeed+0xd2>
                  __LL_I2C_SPEED_FAST_TO_CCR(PeriphClock, ClockSpeed, DutyCycle)        | \
 8002702:	687a      	ldr	r2, [r7, #4]
 8002704:	4613      	mov	r3, r2
 8002706:	009b      	lsls	r3, r3, #2
 8002708:	4413      	add	r3, r2
 800270a:	009a      	lsls	r2, r3, #2
 800270c:	4413      	add	r3, r2
 800270e:	68ba      	ldr	r2, [r7, #8]
 8002710:	fbb2 f3f3 	udiv	r3, r2, r3
    clockconfig = LL_I2C_CLOCK_SPEED_FAST_MODE                                          | \
 8002714:	f443 4300 	orr.w	r3, r3, #32768	; 0x8000
 8002718:	e001      	b.n	800271e <LL_I2C_ConfigSpeed+0xd6>
 800271a:	f248 0301 	movw	r3, #32769	; 0x8001
 800271e:	683a      	ldr	r2, [r7, #0]
 8002720:	4313      	orrs	r3, r2
 8002722:	617b      	str	r3, [r7, #20]
 8002724:	e011      	b.n	800274a <LL_I2C_ConfigSpeed+0x102>
  }
  else
  {
    /* Set Speed mode at standard for Clock Speed request in standard clock range */
    clockconfig = LL_I2C_CLOCK_SPEED_STANDARD_MODE                                      | \
                  __LL_I2C_SPEED_STANDARD_TO_CCR(PeriphClock, ClockSpeed);
 8002726:	687b      	ldr	r3, [r7, #4]
 8002728:	005b      	lsls	r3, r3, #1
 800272a:	68ba      	ldr	r2, [r7, #8]
 800272c:	fbb2 f2f3 	udiv	r2, r2, r3
 8002730:	f640 73fc 	movw	r3, #4092	; 0xffc
 8002734:	4013      	ands	r3, r2
    clockconfig = LL_I2C_CLOCK_SPEED_STANDARD_MODE                                      | \
 8002736:	2b00      	cmp	r3, #0
 8002738:	d005      	beq.n	8002746 <LL_I2C_ConfigSpeed+0xfe>
                  __LL_I2C_SPEED_STANDARD_TO_CCR(PeriphClock, ClockSpeed);
 800273a:	687b      	ldr	r3, [r7, #4]
 800273c:	005b      	lsls	r3, r3, #1
    clockconfig = LL_I2C_CLOCK_SPEED_STANDARD_MODE                                      | \
 800273e:	68ba      	ldr	r2, [r7, #8]
 8002740:	fbb2 f3f3 	udiv	r3, r2, r3
 8002744:	e000      	b.n	8002748 <LL_I2C_ConfigSpeed+0x100>
 8002746:	2304      	movs	r3, #4
 8002748:	617b      	str	r3, [r7, #20]
  }

  /* Configure I2Cx: Clock control register */
  MODIFY_REG(I2Cx->CCR, (I2C_CCR_FS | I2C_CCR_DUTY | I2C_CCR_CCR), clockconfig);
 800274a:	68fb      	ldr	r3, [r7, #12]
 800274c:	69db      	ldr	r3, [r3, #28]
 800274e:	f423 434f 	bic.w	r3, r3, #52992	; 0xcf00
 8002752:	f023 03ff 	bic.w	r3, r3, #255	; 0xff
 8002756:	697a      	ldr	r2, [r7, #20]
 8002758:	431a      	orrs	r2, r3
 800275a:	68fb      	ldr	r3, [r7, #12]
 800275c:	61da      	str	r2, [r3, #28]
}
 800275e:	bf00      	nop
 8002760:	371c      	adds	r7, #28
 8002762:	46bd      	mov	sp, r7
 8002764:	bc80      	pop	{r7}
 8002766:	4770      	bx	lr
 8002768:	431bde83 	.word	0x431bde83
 800276c:	000186a0 	.word	0x000186a0
 8002770:	10624dd3 	.word	0x10624dd3

08002774 <LL_I2C_SetMode>:
  *         @arg @ref LL_I2C_MODE_SMBUS_DEVICE
  *         @arg @ref LL_I2C_MODE_SMBUS_DEVICE_ARP
  * @retval None
  */
__STATIC_INLINE void LL_I2C_SetMode(I2C_TypeDef *I2Cx, uint32_t PeripheralMode)
{
 8002774:	b480      	push	{r7}
 8002776:	b083      	sub	sp, #12
 8002778:	af00      	add	r7, sp, #0
 800277a:	6078      	str	r0, [r7, #4]
 800277c:	6039      	str	r1, [r7, #0]
  MODIFY_REG(I2Cx->CR1, I2C_CR1_SMBUS | I2C_CR1_SMBTYPE | I2C_CR1_ENARP, PeripheralMode);
 800277e:	687b      	ldr	r3, [r7, #4]
 8002780:	681b      	ldr	r3, [r3, #0]
 8002782:	f023 021a 	bic.w	r2, r3, #26
 8002786:	683b      	ldr	r3, [r7, #0]
 8002788:	431a      	orrs	r2, r3
 800278a:	687b      	ldr	r3, [r7, #4]
 800278c:	601a      	str	r2, [r3, #0]
}
 800278e:	bf00      	nop
 8002790:	370c      	adds	r7, #12
 8002792:	46bd      	mov	sp, r7
 8002794:	bc80      	pop	{r7}
 8002796:	4770      	bx	lr

08002798 <LL_I2C_AcknowledgeNextData>:
  *         @arg @ref LL_I2C_ACK
  *         @arg @ref LL_I2C_NACK
  * @retval None
  */
__STATIC_INLINE void LL_I2C_AcknowledgeNextData(I2C_TypeDef *I2Cx, uint32_t TypeAcknowledge)
{
 8002798:	b480      	push	{r7}
 800279a:	b083      	sub	sp, #12
 800279c:	af00      	add	r7, sp, #0
 800279e:	6078      	str	r0, [r7, #4]
 80027a0:	6039      	str	r1, [r7, #0]
  MODIFY_REG(I2Cx->CR1, I2C_CR1_ACK, TypeAcknowledge);
 80027a2:	687b      	ldr	r3, [r7, #4]
 80027a4:	681b      	ldr	r3, [r3, #0]
 80027a6:	f423 6280 	bic.w	r2, r3, #1024	; 0x400
 80027aa:	683b      	ldr	r3, [r7, #0]
 80027ac:	431a      	orrs	r2, r3
 80027ae:	687b      	ldr	r3, [r7, #4]
 80027b0:	601a      	str	r2, [r3, #0]
}
 80027b2:	bf00      	nop
 80027b4:	370c      	adds	r7, #12
 80027b6:	46bd      	mov	sp, r7
 80027b8:	bc80      	pop	{r7}
 80027ba:	4770      	bx	lr

080027bc <LL_I2C_Init>:
  * @retval An ErrorStatus enumeration value:
  *          - SUCCESS  I2C registers are initialized
  *          - ERROR  Not applicable
  */
uint32_t LL_I2C_Init(I2C_TypeDef *I2Cx, LL_I2C_InitTypeDef *I2C_InitStruct)
{
 80027bc:	b580      	push	{r7, lr}
 80027be:	b086      	sub	sp, #24
 80027c0:	af00      	add	r7, sp, #0
 80027c2:	6078      	str	r0, [r7, #4]
 80027c4:	6039      	str	r1, [r7, #0]
  assert_param(IS_LL_I2C_OWN_ADDRESS1(I2C_InitStruct->OwnAddress1));
  assert_param(IS_LL_I2C_TYPE_ACKNOWLEDGE(I2C_InitStruct->TypeAcknowledge));
  assert_param(IS_LL_I2C_OWN_ADDRSIZE(I2C_InitStruct->OwnAddrSize));

  /* Disable the selected I2Cx Peripheral */
  LL_I2C_Disable(I2Cx);
 80027c6:	6878      	ldr	r0, [r7, #4]
 80027c8:	f7ff ff18 	bl	80025fc <LL_I2C_Disable>

  /* Retrieve Clock frequencies */
  LL_RCC_GetSystemClocksFreq(&rcc_clocks);
 80027cc:	f107 0308 	add.w	r3, r7, #8
 80027d0:	4618      	mov	r0, r3
 80027d2:	f000 f87b 	bl	80028cc <LL_RCC_GetSystemClocksFreq>
   * Configure the SCL speed :
   * - ClockSpeed: I2C_CR2_FREQ[5:0], I2C_TRISE_TRISE[5:0], I2C_CCR_FS,
   *           and I2C_CCR_CCR[11:0] bits
   * - DutyCycle: I2C_CCR_DUTY[7:0] bits
   */
  LL_I2C_ConfigSpeed(I2Cx, rcc_clocks.PCLK1_Frequency, I2C_InitStruct->ClockSpeed, I2C_InitStruct->DutyCycle);
 80027d6:	6939      	ldr	r1, [r7, #16]
 80027d8:	683b      	ldr	r3, [r7, #0]
 80027da:	685a      	ldr	r2, [r3, #4]
 80027dc:	683b      	ldr	r3, [r7, #0]
 80027de:	689b      	ldr	r3, [r3, #8]
 80027e0:	6878      	ldr	r0, [r7, #4]
 80027e2:	f7ff ff31 	bl	8002648 <LL_I2C_ConfigSpeed>
  /*---------------------------- I2Cx OAR1 Configuration -----------------------
   * Disable, Configure and Enable I2Cx device own address 1 with parameters :
   * - OwnAddress1:  I2C_OAR1_ADD[9:8], I2C_OAR1_ADD[7:1] and I2C_OAR1_ADD0 bits
   * - OwnAddrSize:  I2C_OAR1_ADDMODE bit
   */
  LL_I2C_SetOwnAddress1(I2Cx, I2C_InitStruct->OwnAddress1, I2C_InitStruct->OwnAddrSize);
 80027e6:	683b      	ldr	r3, [r7, #0]
 80027e8:	68d9      	ldr	r1, [r3, #12]
 80027ea:	683b      	ldr	r3, [r7, #0]
 80027ec:	695b      	ldr	r3, [r3, #20]
 80027ee:	461a      	mov	r2, r3
 80027f0:	6878      	ldr	r0, [r7, #4]
 80027f2:	f7ff ff12 	bl	800261a <LL_I2C_SetOwnAddress1>

  /*---------------------------- I2Cx MODE Configuration -----------------------
  * Configure I2Cx peripheral mode with parameter :
   * - PeripheralMode: I2C_CR1_SMBUS, I2C_CR1_SMBTYPE and I2C_CR1_ENARP bits
   */
  LL_I2C_SetMode(I2Cx, I2C_InitStruct->PeripheralMode);
 80027f6:	683b      	ldr	r3, [r7, #0]
 80027f8:	681b      	ldr	r3, [r3, #0]
 80027fa:	4619      	mov	r1, r3
 80027fc:	6878      	ldr	r0, [r7, #4]
 80027fe:	f7ff ffb9 	bl	8002774 <LL_I2C_SetMode>

  /* Enable the selected I2Cx Peripheral */
  LL_I2C_Enable(I2Cx);
 8002802:	6878      	ldr	r0, [r7, #4]
 8002804:	f7ff feeb 	bl	80025de <LL_I2C_Enable>
  /*---------------------------- I2Cx CR2 Configuration ------------------------
   * Configure the ACKnowledge or Non ACKnowledge condition
   * after the address receive match code or next received byte with parameter :
   * - TypeAcknowledge: I2C_CR2_NACK bit
   */
  LL_I2C_AcknowledgeNextData(I2Cx, I2C_InitStruct->TypeAcknowledge);
 8002808:	683b      	ldr	r3, [r7, #0]
 800280a:	691b      	ldr	r3, [r3, #16]
 800280c:	4619      	mov	r1, r3
 800280e:	6878      	ldr	r0, [r7, #4]
 8002810:	f7ff ffc2 	bl	8002798 <LL_I2C_AcknowledgeNextData>

  return SUCCESS;
 8002814:	2300      	movs	r3, #0
}
 8002816:	4618      	mov	r0, r3
 8002818:	3718      	adds	r7, #24
 800281a:	46bd      	mov	sp, r7
 800281c:	bd80      	pop	{r7, pc}
	...

08002820 <LL_RCC_GetSysClkSource>:
{
 8002820:	b480      	push	{r7}
 8002822:	af00      	add	r7, sp, #0
  return (uint32_t)(READ_BIT(RCC->CFGR, RCC_CFGR_SWS));
 8002824:	4b03      	ldr	r3, [pc, #12]	; (8002834 <LL_RCC_GetSysClkSource+0x14>)
 8002826:	685b      	ldr	r3, [r3, #4]
 8002828:	f003 030c 	and.w	r3, r3, #12
}
 800282c:	4618      	mov	r0, r3
 800282e:	46bd      	mov	sp, r7
 8002830:	bc80      	pop	{r7}
 8002832:	4770      	bx	lr
 8002834:	40021000 	.word	0x40021000

08002838 <LL_RCC_GetAHBPrescaler>:
{
 8002838:	b480      	push	{r7}
 800283a:	af00      	add	r7, sp, #0
  return (uint32_t)(READ_BIT(RCC->CFGR, RCC_CFGR_HPRE));
 800283c:	4b03      	ldr	r3, [pc, #12]	; (800284c <LL_RCC_GetAHBPrescaler+0x14>)
 800283e:	685b      	ldr	r3, [r3, #4]
 8002840:	f003 03f0 	and.w	r3, r3, #240	; 0xf0
}
 8002844:	4618      	mov	r0, r3
 8002846:	46bd      	mov	sp, r7
 8002848:	bc80      	pop	{r7}
 800284a:	4770      	bx	lr
 800284c:	40021000 	.word	0x40021000

08002850 <LL_RCC_GetAPB1Prescaler>:
{
 8002850:	b480      	push	{r7}
 8002852:	af00      	add	r7, sp, #0
  return (uint32_t)(READ_BIT(RCC->CFGR, RCC_CFGR_PPRE1));
 8002854:	4b03      	ldr	r3, [pc, #12]	; (8002864 <LL_RCC_GetAPB1Prescaler+0x14>)
 8002856:	685b      	ldr	r3, [r3, #4]
 8002858:	f403 63e0 	and.w	r3, r3, #1792	; 0x700
}
 800285c:	4618      	mov	r0, r3
 800285e:	46bd      	mov	sp, r7
 8002860:	bc80      	pop	{r7}
 8002862:	4770      	bx	lr
 8002864:	40021000 	.word	0x40021000

08002868 <LL_RCC_GetAPB2Prescaler>:
{
 8002868:	b480      	push	{r7}
 800286a:	af00      	add	r7, sp, #0
  return (uint32_t)(READ_BIT(RCC->CFGR, RCC_CFGR_PPRE2));
 800286c:	4b03      	ldr	r3, [pc, #12]	; (800287c <LL_RCC_GetAPB2Prescaler+0x14>)
 800286e:	685b      	ldr	r3, [r3, #4]
 8002870:	f403 5360 	and.w	r3, r3, #14336	; 0x3800
}
 8002874:	4618      	mov	r0, r3
 8002876:	46bd      	mov	sp, r7
 8002878:	bc80      	pop	{r7}
 800287a:	4770      	bx	lr
 800287c:	40021000 	.word	0x40021000

08002880 <LL_RCC_PLL_GetMainSource>:
  *         @arg @ref LL_RCC_PLLSOURCE_PLL2 (*)
  *
  *         (*) value not defined in all devices
  */
__STATIC_INLINE uint32_t LL_RCC_PLL_GetMainSource(void)
{
 8002880:	b480      	push	{r7}
 8002882:	af00      	add	r7, sp, #0
#if defined(RCC_CFGR2_PREDIV1SRC)
  uint32_t pllsrc = READ_BIT(RCC->CFGR, RCC_CFGR_PLLSRC);
  uint32_t predivsrc = (uint32_t)(READ_BIT(RCC->CFGR2, RCC_CFGR2_PREDIV1SRC) << 4U);
  return (uint32_t)(pllsrc | predivsrc);
#else
  return (uint32_t)(READ_BIT(RCC->CFGR, RCC_CFGR_PLLSRC));
 8002884:	4b03      	ldr	r3, [pc, #12]	; (8002894 <LL_RCC_PLL_GetMainSource+0x14>)
 8002886:	685b      	ldr	r3, [r3, #4]
 8002888:	f403 3380 	and.w	r3, r3, #65536	; 0x10000
#endif /*RCC_CFGR2_PREDIV1SRC*/
}
 800288c:	4618      	mov	r0, r3
 800288e:	46bd      	mov	sp, r7
 8002890:	bc80      	pop	{r7}
 8002892:	4770      	bx	lr
 8002894:	40021000 	.word	0x40021000

08002898 <LL_RCC_PLL_GetMultiplicator>:
  *         @arg @ref LL_RCC_PLL_MUL_16 (*)
  *
  *         (*) value not defined in all devices
  */
__STATIC_INLINE uint32_t LL_RCC_PLL_GetMultiplicator(void)
{
 8002898:	b480      	push	{r7}
 800289a:	af00      	add	r7, sp, #0
  return (uint32_t)(READ_BIT(RCC->CFGR, RCC_CFGR_PLLMULL));
 800289c:	4b03      	ldr	r3, [pc, #12]	; (80028ac <LL_RCC_PLL_GetMultiplicator+0x14>)
 800289e:	685b      	ldr	r3, [r3, #4]
 80028a0:	f403 1370 	and.w	r3, r3, #3932160	; 0x3c0000
}
 80028a4:	4618      	mov	r0, r3
 80028a6:	46bd      	mov	sp, r7
 80028a8:	bc80      	pop	{r7}
 80028aa:	4770      	bx	lr
 80028ac:	40021000 	.word	0x40021000

080028b0 <LL_RCC_PLL_GetPrediv>:
  *         @arg @ref LL_RCC_PREDIV_DIV_16 (*)
  *
  *         (*) value not defined in all devices
  */
__STATIC_INLINE uint32_t LL_RCC_PLL_GetPrediv(void)
{
 80028b0:	b480      	push	{r7}
 80028b2:	af00      	add	r7, sp, #0
#if defined(RCC_CFGR2_PREDIV1)
  return (uint32_t)(READ_BIT(RCC->CFGR2, RCC_CFGR2_PREDIV1));
#else
  return (uint32_t)(READ_BIT(RCC->CFGR, RCC_CFGR_PLLXTPRE) >> RCC_CFGR_PLLXTPRE_Pos);
 80028b4:	4b04      	ldr	r3, [pc, #16]	; (80028c8 <LL_RCC_PLL_GetPrediv+0x18>)
 80028b6:	685b      	ldr	r3, [r3, #4]
 80028b8:	0c5b      	lsrs	r3, r3, #17
 80028ba:	f003 0301 	and.w	r3, r3, #1
#endif /*RCC_CFGR2_PREDIV1*/
}
 80028be:	4618      	mov	r0, r3
 80028c0:	46bd      	mov	sp, r7
 80028c2:	bc80      	pop	{r7}
 80028c4:	4770      	bx	lr
 80028c6:	bf00      	nop
 80028c8:	40021000 	.word	0x40021000

080028cc <LL_RCC_GetSystemClocksFreq>:
  *         configuration based on this function will be incorrect.
  * @param  RCC_Clocks pointer to a @ref LL_RCC_ClocksTypeDef structure which will hold the clocks frequencies
  * @retval None
  */
void LL_RCC_GetSystemClocksFreq(LL_RCC_ClocksTypeDef *RCC_Clocks)
{
 80028cc:	b580      	push	{r7, lr}
 80028ce:	b082      	sub	sp, #8
 80028d0:	af00      	add	r7, sp, #0
 80028d2:	6078      	str	r0, [r7, #4]
  /* Get SYSCLK frequency */
  RCC_Clocks->SYSCLK_Frequency = RCC_GetSystemClockFreq();
 80028d4:	f000 f820 	bl	8002918 <RCC_GetSystemClockFreq>
 80028d8:	4602      	mov	r2, r0
 80028da:	687b      	ldr	r3, [r7, #4]
 80028dc:	601a      	str	r2, [r3, #0]

  /* HCLK clock frequency */
  RCC_Clocks->HCLK_Frequency   = RCC_GetHCLKClockFreq(RCC_Clocks->SYSCLK_Frequency);
 80028de:	687b      	ldr	r3, [r7, #4]
 80028e0:	681b      	ldr	r3, [r3, #0]
 80028e2:	4618      	mov	r0, r3
 80028e4:	f000 f83e 	bl	8002964 <RCC_GetHCLKClockFreq>
 80028e8:	4602      	mov	r2, r0
 80028ea:	687b      	ldr	r3, [r7, #4]
 80028ec:	605a      	str	r2, [r3, #4]

  /* PCLK1 clock frequency */
  RCC_Clocks->PCLK1_Frequency  = RCC_GetPCLK1ClockFreq(RCC_Clocks->HCLK_Frequency);
 80028ee:	687b      	ldr	r3, [r7, #4]
 80028f0:	685b      	ldr	r3, [r3, #4]
 80028f2:	4618      	mov	r0, r3
 80028f4:	f000 f84c 	bl	8002990 <RCC_GetPCLK1ClockFreq>
 80028f8:	4602      	mov	r2, r0
 80028fa:	687b      	ldr	r3, [r7, #4]
 80028fc:	609a      	str	r2, [r3, #8]

  /* PCLK2 clock frequency */
  RCC_Clocks->PCLK2_Frequency  = RCC_GetPCLK2ClockFreq(RCC_Clocks->HCLK_Frequency);
 80028fe:	687b      	ldr	r3, [r7, #4]
 8002900:	685b      	ldr	r3, [r3, #4]
 8002902:	4618      	mov	r0, r3
 8002904:	f000 f858 	bl	80029b8 <RCC_GetPCLK2ClockFreq>
 8002908:	4602      	mov	r2, r0
 800290a:	687b      	ldr	r3, [r7, #4]
 800290c:	60da      	str	r2, [r3, #12]
}
 800290e:	bf00      	nop
 8002910:	3708      	adds	r7, #8
 8002912:	46bd      	mov	sp, r7
 8002914:	bd80      	pop	{r7, pc}
	...

08002918 <RCC_GetSystemClockFreq>:
/**
  * @brief  Return SYSTEM clock frequency
  * @retval SYSTEM clock frequency (in Hz)
  */
uint32_t RCC_GetSystemClockFreq(void)
{
 8002918:	b580      	push	{r7, lr}
 800291a:	b082      	sub	sp, #8
 800291c:	af00      	add	r7, sp, #0
  uint32_t frequency = 0U;
 800291e:	2300      	movs	r3, #0
 8002920:	607b      	str	r3, [r7, #4]

  /* Get SYSCLK source -------------------------------------------------------*/
  switch (LL_RCC_GetSysClkSource())
 8002922:	f7ff ff7d 	bl	8002820 <LL_RCC_GetSysClkSource>
 8002926:	4603      	mov	r3, r0
 8002928:	2b08      	cmp	r3, #8
 800292a:	d00c      	beq.n	8002946 <RCC_GetSystemClockFreq+0x2e>
 800292c:	2b08      	cmp	r3, #8
 800292e:	d80e      	bhi.n	800294e <RCC_GetSystemClockFreq+0x36>
 8002930:	2b00      	cmp	r3, #0
 8002932:	d002      	beq.n	800293a <RCC_GetSystemClockFreq+0x22>
 8002934:	2b04      	cmp	r3, #4
 8002936:	d003      	beq.n	8002940 <RCC_GetSystemClockFreq+0x28>
 8002938:	e009      	b.n	800294e <RCC_GetSystemClockFreq+0x36>
  {
    case LL_RCC_SYS_CLKSOURCE_STATUS_HSI:  /* HSI used as system clock  source */
      frequency = HSI_VALUE;
 800293a:	4b09      	ldr	r3, [pc, #36]	; (8002960 <RCC_GetSystemClockFreq+0x48>)
 800293c:	607b      	str	r3, [r7, #4]
      break;
 800293e:	e009      	b.n	8002954 <RCC_GetSystemClockFreq+0x3c>

    case LL_RCC_SYS_CLKSOURCE_STATUS_HSE:  /* HSE used as system clock  source */
      frequency = HSE_VALUE;
 8002940:	4b07      	ldr	r3, [pc, #28]	; (8002960 <RCC_GetSystemClockFreq+0x48>)
 8002942:	607b      	str	r3, [r7, #4]
      break;
 8002944:	e006      	b.n	8002954 <RCC_GetSystemClockFreq+0x3c>

    case LL_RCC_SYS_CLKSOURCE_STATUS_PLL:  /* PLL used as system clock  source */
      frequency = RCC_PLL_GetFreqDomain_SYS();
 8002946:	f000 f84b 	bl	80029e0 <RCC_PLL_GetFreqDomain_SYS>
 800294a:	6078      	str	r0, [r7, #4]
      break;
 800294c:	e002      	b.n	8002954 <RCC_GetSystemClockFreq+0x3c>

    default:
      frequency = HSI_VALUE;
 800294e:	4b04      	ldr	r3, [pc, #16]	; (8002960 <RCC_GetSystemClockFreq+0x48>)
 8002950:	607b      	str	r3, [r7, #4]
      break;
 8002952:	bf00      	nop
  }

  return frequency;
 8002954:	687b      	ldr	r3, [r7, #4]
}
 8002956:	4618      	mov	r0, r3
 8002958:	3708      	adds	r7, #8
 800295a:	46bd      	mov	sp, r7
 800295c:	bd80      	pop	{r7, pc}
 800295e:	bf00      	nop
 8002960:	007a1200 	.word	0x007a1200

08002964 <RCC_GetHCLKClockFreq>:
  * @brief  Return HCLK clock frequency
  * @param  SYSCLK_Frequency SYSCLK clock frequency
  * @retval HCLK clock frequency (in Hz)
  */
uint32_t RCC_GetHCLKClockFreq(uint32_t SYSCLK_Frequency)
{
 8002964:	b580      	push	{r7, lr}
 8002966:	b082      	sub	sp, #8
 8002968:	af00      	add	r7, sp, #0
 800296a:	6078      	str	r0, [r7, #4]
  /* HCLK clock frequency */
  return __LL_RCC_CALC_HCLK_FREQ(SYSCLK_Frequency, LL_RCC_GetAHBPrescaler());
 800296c:	f7ff ff64 	bl	8002838 <LL_RCC_GetAHBPrescaler>
 8002970:	4603      	mov	r3, r0
 8002972:	091b      	lsrs	r3, r3, #4
 8002974:	f003 030f 	and.w	r3, r3, #15
 8002978:	4a04      	ldr	r2, [pc, #16]	; (800298c <RCC_GetHCLKClockFreq+0x28>)
 800297a:	5cd3      	ldrb	r3, [r2, r3]
 800297c:	461a      	mov	r2, r3
 800297e:	687b      	ldr	r3, [r7, #4]
 8002980:	40d3      	lsrs	r3, r2
}
 8002982:	4618      	mov	r0, r3
 8002984:	3708      	adds	r7, #8
 8002986:	46bd      	mov	sp, r7
 8002988:	bd80      	pop	{r7, pc}
 800298a:	bf00      	nop
 800298c:	08002e10 	.word	0x08002e10

08002990 <RCC_GetPCLK1ClockFreq>:
  * @brief  Return PCLK1 clock frequency
  * @param  HCLK_Frequency HCLK clock frequency
  * @retval PCLK1 clock frequency (in Hz)
  */
uint32_t RCC_GetPCLK1ClockFreq(uint32_t HCLK_Frequency)
{
 8002990:	b580      	push	{r7, lr}
 8002992:	b082      	sub	sp, #8
 8002994:	af00      	add	r7, sp, #0
 8002996:	6078      	str	r0, [r7, #4]
  /* PCLK1 clock frequency */
  return __LL_RCC_CALC_PCLK1_FREQ(HCLK_Frequency, LL_RCC_GetAPB1Prescaler());
 8002998:	f7ff ff5a 	bl	8002850 <LL_RCC_GetAPB1Prescaler>
 800299c:	4603      	mov	r3, r0
 800299e:	0a1b      	lsrs	r3, r3, #8
 80029a0:	4a04      	ldr	r2, [pc, #16]	; (80029b4 <RCC_GetPCLK1ClockFreq+0x24>)
 80029a2:	5cd3      	ldrb	r3, [r2, r3]
 80029a4:	461a      	mov	r2, r3
 80029a6:	687b      	ldr	r3, [r7, #4]
 80029a8:	40d3      	lsrs	r3, r2
}
 80029aa:	4618      	mov	r0, r3
 80029ac:	3708      	adds	r7, #8
 80029ae:	46bd      	mov	sp, r7
 80029b0:	bd80      	pop	{r7, pc}
 80029b2:	bf00      	nop
 80029b4:	08002e20 	.word	0x08002e20

080029b8 <RCC_GetPCLK2ClockFreq>:
  * @brief  Return PCLK2 clock frequency
  * @param  HCLK_Frequency HCLK clock frequency
  * @retval PCLK2 clock frequency (in Hz)
  */
uint32_t RCC_GetPCLK2ClockFreq(uint32_t HCLK_Frequency)
{
 80029b8:	b580      	push	{r7, lr}
 80029ba:	b082      	sub	sp, #8
 80029bc:	af00      	add	r7, sp, #0
 80029be:	6078      	str	r0, [r7, #4]
  /* PCLK2 clock frequency */
  return __LL_RCC_CALC_PCLK2_FREQ(HCLK_Frequency, LL_RCC_GetAPB2Prescaler());
 80029c0:	f7ff ff52 	bl	8002868 <LL_RCC_GetAPB2Prescaler>
 80029c4:	4603      	mov	r3, r0
 80029c6:	0adb      	lsrs	r3, r3, #11
 80029c8:	4a04      	ldr	r2, [pc, #16]	; (80029dc <RCC_GetPCLK2ClockFreq+0x24>)
 80029ca:	5cd3      	ldrb	r3, [r2, r3]
 80029cc:	461a      	mov	r2, r3
 80029ce:	687b      	ldr	r3, [r7, #4]
 80029d0:	40d3      	lsrs	r3, r2
}
 80029d2:	4618      	mov	r0, r3
 80029d4:	3708      	adds	r7, #8
 80029d6:	46bd      	mov	sp, r7
 80029d8:	bd80      	pop	{r7, pc}
 80029da:	bf00      	nop
 80029dc:	08002e20 	.word	0x08002e20

080029e0 <RCC_PLL_GetFreqDomain_SYS>:
/**
  * @brief  Return PLL clock frequency used for system domain
  * @retval PLL clock frequency (in Hz)
  */
uint32_t RCC_PLL_GetFreqDomain_SYS(void)
{
 80029e0:	b580      	push	{r7, lr}
 80029e2:	b082      	sub	sp, #8
 80029e4:	af00      	add	r7, sp, #0
  uint32_t pllinputfreq = 0U, pllsource = 0U;
 80029e6:	2300      	movs	r3, #0
 80029e8:	607b      	str	r3, [r7, #4]
 80029ea:	2300      	movs	r3, #0
 80029ec:	603b      	str	r3, [r7, #0]

  /* PLL_VCO = (HSE_VALUE, HSI_VALUE or PLL2 / PLL Predivider) * PLL Multiplicator */

  /* Get PLL source */
  pllsource = LL_RCC_PLL_GetMainSource();
 80029ee:	f7ff ff47 	bl	8002880 <LL_RCC_PLL_GetMainSource>
 80029f2:	6038      	str	r0, [r7, #0]

  switch (pllsource)
 80029f4:	683b      	ldr	r3, [r7, #0]
 80029f6:	2b00      	cmp	r3, #0
 80029f8:	d004      	beq.n	8002a04 <RCC_PLL_GetFreqDomain_SYS+0x24>
 80029fa:	683b      	ldr	r3, [r7, #0]
 80029fc:	f5b3 3f80 	cmp.w	r3, #65536	; 0x10000
 8002a00:	d003      	beq.n	8002a0a <RCC_PLL_GetFreqDomain_SYS+0x2a>
 8002a02:	e00b      	b.n	8002a1c <RCC_PLL_GetFreqDomain_SYS+0x3c>
  {
    case LL_RCC_PLLSOURCE_HSI_DIV_2: /* HSI used as PLL clock source */
      pllinputfreq = HSI_VALUE / 2U;
 8002a04:	4b0d      	ldr	r3, [pc, #52]	; (8002a3c <RCC_PLL_GetFreqDomain_SYS+0x5c>)
 8002a06:	607b      	str	r3, [r7, #4]
      break;
 8002a08:	e00b      	b.n	8002a22 <RCC_PLL_GetFreqDomain_SYS+0x42>

    case LL_RCC_PLLSOURCE_HSE:       /* HSE used as PLL clock source */
      pllinputfreq = HSE_VALUE / (LL_RCC_PLL_GetPrediv() + 1U);
 8002a0a:	f7ff ff51 	bl	80028b0 <LL_RCC_PLL_GetPrediv>
 8002a0e:	4603      	mov	r3, r0
 8002a10:	3301      	adds	r3, #1
 8002a12:	4a0b      	ldr	r2, [pc, #44]	; (8002a40 <RCC_PLL_GetFreqDomain_SYS+0x60>)
 8002a14:	fbb2 f3f3 	udiv	r3, r2, r3
 8002a18:	607b      	str	r3, [r7, #4]
      break;
 8002a1a:	e002      	b.n	8002a22 <RCC_PLL_GetFreqDomain_SYS+0x42>
      pllinputfreq = RCC_PLL2_GetFreqClockFreq() / (LL_RCC_PLL_GetPrediv() + 1U);
      break;
#endif /* RCC_PLL2_SUPPORT */

    default:
      pllinputfreq = HSI_VALUE / 2U;
 8002a1c:	4b07      	ldr	r3, [pc, #28]	; (8002a3c <RCC_PLL_GetFreqDomain_SYS+0x5c>)
 8002a1e:	607b      	str	r3, [r7, #4]
      break;
 8002a20:	bf00      	nop
  }
  return __LL_RCC_CALC_PLLCLK_FREQ(pllinputfreq, LL_RCC_PLL_GetMultiplicator());
 8002a22:	f7ff ff39 	bl	8002898 <LL_RCC_PLL_GetMultiplicator>
 8002a26:	4603      	mov	r3, r0
 8002a28:	0c9b      	lsrs	r3, r3, #18
 8002a2a:	3302      	adds	r3, #2
 8002a2c:	687a      	ldr	r2, [r7, #4]
 8002a2e:	fb02 f303 	mul.w	r3, r2, r3
}
 8002a32:	4618      	mov	r0, r3
 8002a34:	3708      	adds	r7, #8
 8002a36:	46bd      	mov	sp, r7
 8002a38:	bd80      	pop	{r7, pc}
 8002a3a:	bf00      	nop
 8002a3c:	003d0900 	.word	0x003d0900
 8002a40:	007a1200 	.word	0x007a1200

08002a44 <LL_USART_IsEnabled>:
{
 8002a44:	b480      	push	{r7}
 8002a46:	b083      	sub	sp, #12
 8002a48:	af00      	add	r7, sp, #0
 8002a4a:	6078      	str	r0, [r7, #4]
  return (READ_BIT(USARTx->CR1, USART_CR1_UE) == (USART_CR1_UE));
 8002a4c:	687b      	ldr	r3, [r7, #4]
 8002a4e:	68db      	ldr	r3, [r3, #12]
 8002a50:	f403 5300 	and.w	r3, r3, #8192	; 0x2000
 8002a54:	f5b3 5f00 	cmp.w	r3, #8192	; 0x2000
 8002a58:	bf0c      	ite	eq
 8002a5a:	2301      	moveq	r3, #1
 8002a5c:	2300      	movne	r3, #0
 8002a5e:	b2db      	uxtb	r3, r3
}
 8002a60:	4618      	mov	r0, r3
 8002a62:	370c      	adds	r7, #12
 8002a64:	46bd      	mov	sp, r7
 8002a66:	bc80      	pop	{r7}
 8002a68:	4770      	bx	lr

08002a6a <LL_USART_SetStopBitsLength>:
{
 8002a6a:	b480      	push	{r7}
 8002a6c:	b083      	sub	sp, #12
 8002a6e:	af00      	add	r7, sp, #0
 8002a70:	6078      	str	r0, [r7, #4]
 8002a72:	6039      	str	r1, [r7, #0]
  MODIFY_REG(USARTx->CR2, USART_CR2_STOP, StopBits);
 8002a74:	687b      	ldr	r3, [r7, #4]
 8002a76:	691b      	ldr	r3, [r3, #16]
 8002a78:	f423 5240 	bic.w	r2, r3, #12288	; 0x3000
 8002a7c:	683b      	ldr	r3, [r7, #0]
 8002a7e:	431a      	orrs	r2, r3
 8002a80:	687b      	ldr	r3, [r7, #4]
 8002a82:	611a      	str	r2, [r3, #16]
}
 8002a84:	bf00      	nop
 8002a86:	370c      	adds	r7, #12
 8002a88:	46bd      	mov	sp, r7
 8002a8a:	bc80      	pop	{r7}
 8002a8c:	4770      	bx	lr

08002a8e <LL_USART_SetHWFlowCtrl>:
{
 8002a8e:	b480      	push	{r7}
 8002a90:	b083      	sub	sp, #12
 8002a92:	af00      	add	r7, sp, #0
 8002a94:	6078      	str	r0, [r7, #4]
 8002a96:	6039      	str	r1, [r7, #0]
  MODIFY_REG(USARTx->CR3, USART_CR3_RTSE | USART_CR3_CTSE, HardwareFlowControl);
 8002a98:	687b      	ldr	r3, [r7, #4]
 8002a9a:	695b      	ldr	r3, [r3, #20]
 8002a9c:	f423 7240 	bic.w	r2, r3, #768	; 0x300
 8002aa0:	683b      	ldr	r3, [r7, #0]
 8002aa2:	431a      	orrs	r2, r3
 8002aa4:	687b      	ldr	r3, [r7, #4]
 8002aa6:	615a      	str	r2, [r3, #20]
}
 8002aa8:	bf00      	nop
 8002aaa:	370c      	adds	r7, #12
 8002aac:	46bd      	mov	sp, r7
 8002aae:	bc80      	pop	{r7}
 8002ab0:	4770      	bx	lr
	...

08002ab4 <LL_USART_SetBaudRate>:
{
 8002ab4:	b480      	push	{r7}
 8002ab6:	b085      	sub	sp, #20
 8002ab8:	af00      	add	r7, sp, #0
 8002aba:	60f8      	str	r0, [r7, #12]
 8002abc:	60b9      	str	r1, [r7, #8]
 8002abe:	607a      	str	r2, [r7, #4]
  USARTx->BRR = (uint16_t)(__LL_USART_DIV_SAMPLING16(PeriphClk, BaudRate));
 8002ac0:	68ba      	ldr	r2, [r7, #8]
 8002ac2:	4613      	mov	r3, r2
 8002ac4:	009b      	lsls	r3, r3, #2
 8002ac6:	4413      	add	r3, r2
 8002ac8:	009a      	lsls	r2, r3, #2
 8002aca:	441a      	add	r2, r3
 8002acc:	687b      	ldr	r3, [r7, #4]
 8002ace:	009b      	lsls	r3, r3, #2
 8002ad0:	fbb2 f3f3 	udiv	r3, r2, r3
 8002ad4:	4a25      	ldr	r2, [pc, #148]	; (8002b6c <LL_USART_SetBaudRate+0xb8>)
 8002ad6:	fba2 2303 	umull	r2, r3, r2, r3
 8002ada:	095b      	lsrs	r3, r3, #5
 8002adc:	b29b      	uxth	r3, r3
 8002ade:	011b      	lsls	r3, r3, #4
 8002ae0:	b299      	uxth	r1, r3
 8002ae2:	68ba      	ldr	r2, [r7, #8]
 8002ae4:	4613      	mov	r3, r2
 8002ae6:	009b      	lsls	r3, r3, #2
 8002ae8:	4413      	add	r3, r2
 8002aea:	009a      	lsls	r2, r3, #2
 8002aec:	441a      	add	r2, r3
 8002aee:	687b      	ldr	r3, [r7, #4]
 8002af0:	009b      	lsls	r3, r3, #2
 8002af2:	fbb2 f2f3 	udiv	r2, r2, r3
 8002af6:	4b1d      	ldr	r3, [pc, #116]	; (8002b6c <LL_USART_SetBaudRate+0xb8>)
 8002af8:	fba3 0302 	umull	r0, r3, r3, r2
 8002afc:	095b      	lsrs	r3, r3, #5
 8002afe:	2064      	movs	r0, #100	; 0x64
 8002b00:	fb00 f303 	mul.w	r3, r0, r3
 8002b04:	1ad3      	subs	r3, r2, r3
 8002b06:	011b      	lsls	r3, r3, #4
 8002b08:	3332      	adds	r3, #50	; 0x32
 8002b0a:	4a18      	ldr	r2, [pc, #96]	; (8002b6c <LL_USART_SetBaudRate+0xb8>)
 8002b0c:	fba2 2303 	umull	r2, r3, r2, r3
 8002b10:	095b      	lsrs	r3, r3, #5
 8002b12:	b29b      	uxth	r3, r3
 8002b14:	f003 03f0 	and.w	r3, r3, #240	; 0xf0
 8002b18:	b29b      	uxth	r3, r3
 8002b1a:	440b      	add	r3, r1
 8002b1c:	b299      	uxth	r1, r3
 8002b1e:	68ba      	ldr	r2, [r7, #8]
 8002b20:	4613      	mov	r3, r2
 8002b22:	009b      	lsls	r3, r3, #2
 8002b24:	4413      	add	r3, r2
 8002b26:	009a      	lsls	r2, r3, #2
 8002b28:	441a      	add	r2, r3
 8002b2a:	687b      	ldr	r3, [r7, #4]
 8002b2c:	009b      	lsls	r3, r3, #2
 8002b2e:	fbb2 f2f3 	udiv	r2, r2, r3
 8002b32:	4b0e      	ldr	r3, [pc, #56]	; (8002b6c <LL_USART_SetBaudRate+0xb8>)
 8002b34:	fba3 0302 	umull	r0, r3, r3, r2
 8002b38:	095b      	lsrs	r3, r3, #5
 8002b3a:	2064      	movs	r0, #100	; 0x64
 8002b3c:	fb00 f303 	mul.w	r3, r0, r3
 8002b40:	1ad3      	subs	r3, r2, r3
 8002b42:	011b      	lsls	r3, r3, #4
 8002b44:	3332      	adds	r3, #50	; 0x32
 8002b46:	4a09      	ldr	r2, [pc, #36]	; (8002b6c <LL_USART_SetBaudRate+0xb8>)
 8002b48:	fba2 2303 	umull	r2, r3, r2, r3
 8002b4c:	095b      	lsrs	r3, r3, #5
 8002b4e:	b29b      	uxth	r3, r3
 8002b50:	f003 030f 	and.w	r3, r3, #15
 8002b54:	b29b      	uxth	r3, r3
 8002b56:	440b      	add	r3, r1
 8002b58:	b29b      	uxth	r3, r3
 8002b5a:	461a      	mov	r2, r3
 8002b5c:	68fb      	ldr	r3, [r7, #12]
 8002b5e:	609a      	str	r2, [r3, #8]
}
 8002b60:	bf00      	nop
 8002b62:	3714      	adds	r7, #20
 8002b64:	46bd      	mov	sp, r7
 8002b66:	bc80      	pop	{r7}
 8002b68:	4770      	bx	lr
 8002b6a:	bf00      	nop
 8002b6c:	51eb851f 	.word	0x51eb851f

08002b70 <LL_USART_Init>:
  * @retval An ErrorStatus enumeration value:
  *          - SUCCESS: USART registers are initialized according to USART_InitStruct content
  *          - ERROR: Problem occurred during USART Registers initialization
  */
ErrorStatus LL_USART_Init(USART_TypeDef *USARTx, const LL_USART_InitTypeDef *USART_InitStruct)
{
 8002b70:	b580      	push	{r7, lr}
 8002b72:	b088      	sub	sp, #32
 8002b74:	af00      	add	r7, sp, #0
 8002b76:	6078      	str	r0, [r7, #4]
 8002b78:	6039      	str	r1, [r7, #0]
  ErrorStatus status = ERROR;
 8002b7a:	2301      	movs	r3, #1
 8002b7c:	77fb      	strb	r3, [r7, #31]
  uint32_t periphclk = LL_RCC_PERIPH_FREQUENCY_NO;
 8002b7e:	2300      	movs	r3, #0
 8002b80:	61bb      	str	r3, [r7, #24]
  assert_param(IS_LL_USART_OVERSAMPLING(USART_InitStruct->OverSampling));
#endif /* USART_OverSampling_Feature */

  /* USART needs to be in disabled state, in order to be able to configure some bits in
     CRx registers */
  if (LL_USART_IsEnabled(USARTx) == 0U)
 8002b82:	6878      	ldr	r0, [r7, #4]
 8002b84:	f7ff ff5e 	bl	8002a44 <LL_USART_IsEnabled>
 8002b88:	4603      	mov	r3, r0
 8002b8a:	2b00      	cmp	r3, #0
 8002b8c:	d145      	bne.n	8002c1a <LL_USART_Init+0xaa>
               (USART_CR1_M | USART_CR1_PCE | USART_CR1_PS |
                USART_CR1_TE | USART_CR1_RE | USART_CR1_OVER8),
               (USART_InitStruct->DataWidth | USART_InitStruct->Parity |
                USART_InitStruct->TransferDirection | USART_InitStruct->OverSampling));
#else
    MODIFY_REG(USARTx->CR1,
 8002b8e:	687b      	ldr	r3, [r7, #4]
 8002b90:	68db      	ldr	r3, [r3, #12]
 8002b92:	f423 53b0 	bic.w	r3, r3, #5632	; 0x1600
 8002b96:	f023 030c 	bic.w	r3, r3, #12
 8002b9a:	683a      	ldr	r2, [r7, #0]
 8002b9c:	6851      	ldr	r1, [r2, #4]
 8002b9e:	683a      	ldr	r2, [r7, #0]
 8002ba0:	68d2      	ldr	r2, [r2, #12]
 8002ba2:	4311      	orrs	r1, r2
 8002ba4:	683a      	ldr	r2, [r7, #0]
 8002ba6:	6912      	ldr	r2, [r2, #16]
 8002ba8:	430a      	orrs	r2, r1
 8002baa:	431a      	orrs	r2, r3
 8002bac:	687b      	ldr	r3, [r7, #4]
 8002bae:	60da      	str	r2, [r3, #12]
    /*---------------------------- USART CR2 Configuration -----------------------
     * Configure USARTx CR2 (Stop bits) with parameters:
     * - Stop Bits:          USART_CR2_STOP bits according to USART_InitStruct->StopBits value.
     * - CLKEN, CPOL, CPHA and LBCL bits are to be configured using LL_USART_ClockInit().
     */
    LL_USART_SetStopBitsLength(USARTx, USART_InitStruct->StopBits);
 8002bb0:	683b      	ldr	r3, [r7, #0]
 8002bb2:	689b      	ldr	r3, [r3, #8]
 8002bb4:	4619      	mov	r1, r3
 8002bb6:	6878      	ldr	r0, [r7, #4]
 8002bb8:	f7ff ff57 	bl	8002a6a <LL_USART_SetStopBitsLength>

    /*---------------------------- USART CR3 Configuration -----------------------
     * Configure USARTx CR3 (Hardware Flow Control) with parameters:
     * - HardwareFlowControl: USART_CR3_RTSE, USART_CR3_CTSE bits according to USART_InitStruct->HardwareFlowControl value.
     */
    LL_USART_SetHWFlowCtrl(USARTx, USART_InitStruct->HardwareFlowControl);
 8002bbc:	683b      	ldr	r3, [r7, #0]
 8002bbe:	695b      	ldr	r3, [r3, #20]
 8002bc0:	4619      	mov	r1, r3
 8002bc2:	6878      	ldr	r0, [r7, #4]
 8002bc4:	f7ff ff63 	bl	8002a8e <LL_USART_SetHWFlowCtrl>

    /*---------------------------- USART BRR Configuration -----------------------
     * Retrieve Clock frequency used for USART Peripheral
     */
    LL_RCC_GetSystemClocksFreq(&rcc_clocks);
 8002bc8:	f107 0308 	add.w	r3, r7, #8
 8002bcc:	4618      	mov	r0, r3
 8002bce:	f7ff fe7d 	bl	80028cc <LL_RCC_GetSystemClocksFreq>
    if (USARTx == USART1)
 8002bd2:	687b      	ldr	r3, [r7, #4]
 8002bd4:	4a13      	ldr	r2, [pc, #76]	; (8002c24 <LL_USART_Init+0xb4>)
 8002bd6:	4293      	cmp	r3, r2
 8002bd8:	d102      	bne.n	8002be0 <LL_USART_Init+0x70>
    {
      periphclk = rcc_clocks.PCLK2_Frequency;
 8002bda:	697b      	ldr	r3, [r7, #20]
 8002bdc:	61bb      	str	r3, [r7, #24]
 8002bde:	e00c      	b.n	8002bfa <LL_USART_Init+0x8a>
    }
    else if (USARTx == USART2)
 8002be0:	687b      	ldr	r3, [r7, #4]
 8002be2:	4a11      	ldr	r2, [pc, #68]	; (8002c28 <LL_USART_Init+0xb8>)
 8002be4:	4293      	cmp	r3, r2
 8002be6:	d102      	bne.n	8002bee <LL_USART_Init+0x7e>
    {
      periphclk = rcc_clocks.PCLK1_Frequency;
 8002be8:	693b      	ldr	r3, [r7, #16]
 8002bea:	61bb      	str	r3, [r7, #24]
 8002bec:	e005      	b.n	8002bfa <LL_USART_Init+0x8a>
    }
#if defined(USART3)
    else if (USARTx == USART3)
 8002bee:	687b      	ldr	r3, [r7, #4]
 8002bf0:	4a0e      	ldr	r2, [pc, #56]	; (8002c2c <LL_USART_Init+0xbc>)
 8002bf2:	4293      	cmp	r3, r2
 8002bf4:	d101      	bne.n	8002bfa <LL_USART_Init+0x8a>
    {
      periphclk = rcc_clocks.PCLK1_Frequency;
 8002bf6:	693b      	ldr	r3, [r7, #16]
 8002bf8:	61bb      	str	r3, [r7, #24]

    /* Configure the USART Baud Rate :
       - valid baud rate value (different from 0) is required
       - Peripheral clock as returned by RCC service, should be valid (different from 0).
    */
    if ((periphclk != LL_RCC_PERIPH_FREQUENCY_NO)
 8002bfa:	69bb      	ldr	r3, [r7, #24]
 8002bfc:	2b00      	cmp	r3, #0
 8002bfe:	d00c      	beq.n	8002c1a <LL_USART_Init+0xaa>
        && (USART_InitStruct->BaudRate != 0U))
 8002c00:	683b      	ldr	r3, [r7, #0]
 8002c02:	681b      	ldr	r3, [r3, #0]
 8002c04:	2b00      	cmp	r3, #0
 8002c06:	d008      	beq.n	8002c1a <LL_USART_Init+0xaa>
    {
      status = SUCCESS;
 8002c08:	2300      	movs	r3, #0
 8002c0a:	77fb      	strb	r3, [r7, #31]
      LL_USART_SetBaudRate(USARTx,
                           periphclk,
                           USART_InitStruct->OverSampling,
                           USART_InitStruct->BaudRate);
#else
      LL_USART_SetBaudRate(USARTx,
 8002c0c:	683b      	ldr	r3, [r7, #0]
 8002c0e:	681b      	ldr	r3, [r3, #0]
 8002c10:	461a      	mov	r2, r3
 8002c12:	69b9      	ldr	r1, [r7, #24]
 8002c14:	6878      	ldr	r0, [r7, #4]
 8002c16:	f7ff ff4d 	bl	8002ab4 <LL_USART_SetBaudRate>
      assert_param(IS_LL_USART_BRR_MIN(USARTx->BRR));
    }
  }
  /* Endif (=> USART not in Disabled state => return ERROR) */

  return (status);
 8002c1a:	7ffb      	ldrb	r3, [r7, #31]
}
 8002c1c:	4618      	mov	r0, r3
 8002c1e:	3720      	adds	r7, #32
 8002c20:	46bd      	mov	sp, r7
 8002c22:	bd80      	pop	{r7, pc}
 8002c24:	40013800 	.word	0x40013800
 8002c28:	40004400 	.word	0x40004400
 8002c2c:	40004800 	.word	0x40004800

08002c30 <LL_InitTick>:
  *         configuration by calling this function, for a delay use rather osDelay RTOS service.
  * @param  Ticks Number of ticks
  * @retval None
  */
__STATIC_INLINE void LL_InitTick(uint32_t HCLKFrequency, uint32_t Ticks)
{
 8002c30:	b480      	push	{r7}
 8002c32:	b083      	sub	sp, #12
 8002c34:	af00      	add	r7, sp, #0
 8002c36:	6078      	str	r0, [r7, #4]
 8002c38:	6039      	str	r1, [r7, #0]
  /* Configure the SysTick to have interrupt in 1ms time base */
  SysTick->LOAD  = (uint32_t)((HCLKFrequency / Ticks) - 1UL);  /* set reload register */
 8002c3a:	687a      	ldr	r2, [r7, #4]
 8002c3c:	683b      	ldr	r3, [r7, #0]
 8002c3e:	fbb2 f3f3 	udiv	r3, r2, r3
 8002c42:	4a07      	ldr	r2, [pc, #28]	; (8002c60 <LL_InitTick+0x30>)
 8002c44:	3b01      	subs	r3, #1
 8002c46:	6053      	str	r3, [r2, #4]
  SysTick->VAL   = 0UL;                                       /* Load the SysTick Counter Value */
 8002c48:	4b05      	ldr	r3, [pc, #20]	; (8002c60 <LL_InitTick+0x30>)
 8002c4a:	2200      	movs	r2, #0
 8002c4c:	609a      	str	r2, [r3, #8]
  SysTick->CTRL  = SysTick_CTRL_CLKSOURCE_Msk |
 8002c4e:	4b04      	ldr	r3, [pc, #16]	; (8002c60 <LL_InitTick+0x30>)
 8002c50:	2205      	movs	r2, #5
 8002c52:	601a      	str	r2, [r3, #0]
                   SysTick_CTRL_ENABLE_Msk;                   /* Enable the Systick Timer */
}
 8002c54:	bf00      	nop
 8002c56:	370c      	adds	r7, #12
 8002c58:	46bd      	mov	sp, r7
 8002c5a:	bc80      	pop	{r7}
 8002c5c:	4770      	bx	lr
 8002c5e:	bf00      	nop
 8002c60:	e000e010 	.word	0xe000e010

08002c64 <LL_Init1msTick>:
  * @param  HCLKFrequency HCLK frequency in Hz
  * @note   HCLK frequency can be calculated thanks to RCC helper macro or function @ref LL_RCC_GetSystemClocksFreq
  * @retval None
  */
void LL_Init1msTick(uint32_t HCLKFrequency)
{
 8002c64:	b580      	push	{r7, lr}
 8002c66:	b082      	sub	sp, #8
 8002c68:	af00      	add	r7, sp, #0
 8002c6a:	6078      	str	r0, [r7, #4]
  /* Use frequency provided in argument */
  LL_InitTick(HCLKFrequency, 1000U);
 8002c6c:	f44f 717a 	mov.w	r1, #1000	; 0x3e8
 8002c70:	6878      	ldr	r0, [r7, #4]
 8002c72:	f7ff ffdd 	bl	8002c30 <LL_InitTick>
}
 8002c76:	bf00      	nop
 8002c78:	3708      	adds	r7, #8
 8002c7a:	46bd      	mov	sp, r7
 8002c7c:	bd80      	pop	{r7, pc}
	...

08002c80 <LL_SetSystemCoreClock>:
  * @note   Variable can be calculated also through SystemCoreClockUpdate function.
  * @param  HCLKFrequency HCLK frequency in Hz (can be calculated thanks to RCC helper macro)
  * @retval None
  */
void LL_SetSystemCoreClock(uint32_t HCLKFrequency)
{
 8002c80:	b480      	push	{r7}
 8002c82:	b083      	sub	sp, #12
 8002c84:	af00      	add	r7, sp, #0
 8002c86:	6078      	str	r0, [r7, #4]
  /* HCLK clock frequency */
  SystemCoreClock = HCLKFrequency;
 8002c88:	4a03      	ldr	r2, [pc, #12]	; (8002c98 <LL_SetSystemCoreClock+0x18>)
 8002c8a:	687b      	ldr	r3, [r7, #4]
 8002c8c:	6013      	str	r3, [r2, #0]
}
 8002c8e:	bf00      	nop
 8002c90:	370c      	adds	r7, #12
 8002c92:	46bd      	mov	sp, r7
 8002c94:	bc80      	pop	{r7}
 8002c96:	4770      	bx	lr
 8002c98:	20000000 	.word	0x20000000

08002c9c <_ZdlPvj>:
 8002c9c:	f000 b800 	b.w	8002ca0 <_ZdlPv>

08002ca0 <_ZdlPv>:
 8002ca0:	f000 b824 	b.w	8002cec <free>

08002ca4 <__libc_init_array>:
 8002ca4:	b570      	push	{r4, r5, r6, lr}
 8002ca6:	2600      	movs	r6, #0
 8002ca8:	4d0c      	ldr	r5, [pc, #48]	; (8002cdc <__libc_init_array+0x38>)
 8002caa:	4c0d      	ldr	r4, [pc, #52]	; (8002ce0 <__libc_init_array+0x3c>)
 8002cac:	1b64      	subs	r4, r4, r5
 8002cae:	10a4      	asrs	r4, r4, #2
 8002cb0:	42a6      	cmp	r6, r4
 8002cb2:	d109      	bne.n	8002cc8 <__libc_init_array+0x24>
 8002cb4:	f000 f878 	bl	8002da8 <_init>
 8002cb8:	2600      	movs	r6, #0
 8002cba:	4d0a      	ldr	r5, [pc, #40]	; (8002ce4 <__libc_init_array+0x40>)
 8002cbc:	4c0a      	ldr	r4, [pc, #40]	; (8002ce8 <__libc_init_array+0x44>)
 8002cbe:	1b64      	subs	r4, r4, r5
 8002cc0:	10a4      	asrs	r4, r4, #2
 8002cc2:	42a6      	cmp	r6, r4
 8002cc4:	d105      	bne.n	8002cd2 <__libc_init_array+0x2e>
 8002cc6:	bd70      	pop	{r4, r5, r6, pc}
 8002cc8:	f855 3b04 	ldr.w	r3, [r5], #4
 8002ccc:	4798      	blx	r3
 8002cce:	3601      	adds	r6, #1
 8002cd0:	e7ee      	b.n	8002cb0 <__libc_init_array+0xc>
 8002cd2:	f855 3b04 	ldr.w	r3, [r5], #4
 8002cd6:	4798      	blx	r3
 8002cd8:	3601      	adds	r6, #1
 8002cda:	e7f2      	b.n	8002cc2 <__libc_init_array+0x1e>
 8002cdc:	08002e30 	.word	0x08002e30
 8002ce0:	08002e30 	.word	0x08002e30
 8002ce4:	08002e30 	.word	0x08002e30
 8002ce8:	08002e40 	.word	0x08002e40

08002cec <free>:
 8002cec:	4b02      	ldr	r3, [pc, #8]	; (8002cf8 <free+0xc>)
 8002cee:	4601      	mov	r1, r0
 8002cf0:	6818      	ldr	r0, [r3, #0]
 8002cf2:	f000 b803 	b.w	8002cfc <_free_r>
 8002cf6:	bf00      	nop
 8002cf8:	20000004 	.word	0x20000004

08002cfc <_free_r>:
 8002cfc:	b538      	push	{r3, r4, r5, lr}
 8002cfe:	4605      	mov	r5, r0
 8002d00:	2900      	cmp	r1, #0
 8002d02:	d040      	beq.n	8002d86 <_free_r+0x8a>
 8002d04:	f851 3c04 	ldr.w	r3, [r1, #-4]
 8002d08:	1f0c      	subs	r4, r1, #4
 8002d0a:	2b00      	cmp	r3, #0
 8002d0c:	bfb8      	it	lt
 8002d0e:	18e4      	addlt	r4, r4, r3
 8002d10:	f000 f83c 	bl	8002d8c <__malloc_lock>
 8002d14:	4a1c      	ldr	r2, [pc, #112]	; (8002d88 <_free_r+0x8c>)
 8002d16:	6813      	ldr	r3, [r2, #0]
 8002d18:	b933      	cbnz	r3, 8002d28 <_free_r+0x2c>
 8002d1a:	6063      	str	r3, [r4, #4]
 8002d1c:	6014      	str	r4, [r2, #0]
 8002d1e:	4628      	mov	r0, r5
 8002d20:	e8bd 4038 	ldmia.w	sp!, {r3, r4, r5, lr}
 8002d24:	f000 b838 	b.w	8002d98 <__malloc_unlock>
 8002d28:	42a3      	cmp	r3, r4
 8002d2a:	d908      	bls.n	8002d3e <_free_r+0x42>
 8002d2c:	6820      	ldr	r0, [r4, #0]
 8002d2e:	1821      	adds	r1, r4, r0
 8002d30:	428b      	cmp	r3, r1
 8002d32:	bf01      	itttt	eq
 8002d34:	6819      	ldreq	r1, [r3, #0]
 8002d36:	685b      	ldreq	r3, [r3, #4]
 8002d38:	1809      	addeq	r1, r1, r0
 8002d3a:	6021      	streq	r1, [r4, #0]
 8002d3c:	e7ed      	b.n	8002d1a <_free_r+0x1e>
 8002d3e:	461a      	mov	r2, r3
 8002d40:	685b      	ldr	r3, [r3, #4]
 8002d42:	b10b      	cbz	r3, 8002d48 <_free_r+0x4c>
 8002d44:	42a3      	cmp	r3, r4
 8002d46:	d9fa      	bls.n	8002d3e <_free_r+0x42>
 8002d48:	6811      	ldr	r1, [r2, #0]
 8002d4a:	1850      	adds	r0, r2, r1
 8002d4c:	42a0      	cmp	r0, r4
 8002d4e:	d10b      	bne.n	8002d68 <_free_r+0x6c>
 8002d50:	6820      	ldr	r0, [r4, #0]
 8002d52:	4401      	add	r1, r0
 8002d54:	1850      	adds	r0, r2, r1
 8002d56:	4283      	cmp	r3, r0
 8002d58:	6011      	str	r1, [r2, #0]
 8002d5a:	d1e0      	bne.n	8002d1e <_free_r+0x22>
 8002d5c:	6818      	ldr	r0, [r3, #0]
 8002d5e:	685b      	ldr	r3, [r3, #4]
 8002d60:	4401      	add	r1, r0
 8002d62:	6011      	str	r1, [r2, #0]
 8002d64:	6053      	str	r3, [r2, #4]
 8002d66:	e7da      	b.n	8002d1e <_free_r+0x22>
 8002d68:	d902      	bls.n	8002d70 <_free_r+0x74>
 8002d6a:	230c      	movs	r3, #12
 8002d6c:	602b      	str	r3, [r5, #0]
 8002d6e:	e7d6      	b.n	8002d1e <_free_r+0x22>
 8002d70:	6820      	ldr	r0, [r4, #0]
 8002d72:	1821      	adds	r1, r4, r0
 8002d74:	428b      	cmp	r3, r1
 8002d76:	bf01      	itttt	eq
 8002d78:	6819      	ldreq	r1, [r3, #0]
 8002d7a:	685b      	ldreq	r3, [r3, #4]
 8002d7c:	1809      	addeq	r1, r1, r0
 8002d7e:	6021      	streq	r1, [r4, #0]
 8002d80:	6063      	str	r3, [r4, #4]
 8002d82:	6054      	str	r4, [r2, #4]
 8002d84:	e7cb      	b.n	8002d1e <_free_r+0x22>
 8002d86:	bd38      	pop	{r3, r4, r5, pc}
 8002d88:	200000f8 	.word	0x200000f8

08002d8c <__malloc_lock>:
 8002d8c:	4801      	ldr	r0, [pc, #4]	; (8002d94 <__malloc_lock+0x8>)
 8002d8e:	f000 b809 	b.w	8002da4 <__retarget_lock_acquire_recursive>
 8002d92:	bf00      	nop
 8002d94:	200000fc 	.word	0x200000fc

08002d98 <__malloc_unlock>:
 8002d98:	4801      	ldr	r0, [pc, #4]	; (8002da0 <__malloc_unlock+0x8>)
 8002d9a:	f000 b804 	b.w	8002da6 <__retarget_lock_release_recursive>
 8002d9e:	bf00      	nop
 8002da0:	200000fc 	.word	0x200000fc

08002da4 <__retarget_lock_acquire_recursive>:
 8002da4:	4770      	bx	lr

08002da6 <__retarget_lock_release_recursive>:
 8002da6:	4770      	bx	lr

08002da8 <_init>:
 8002da8:	b5f8      	push	{r3, r4, r5, r6, r7, lr}
 8002daa:	bf00      	nop
 8002dac:	bcf8      	pop	{r3, r4, r5, r6, r7}
 8002dae:	bc08      	pop	{r3}
 8002db0:	469e      	mov	lr, r3
 8002db2:	4770      	bx	lr

08002db4 <_fini>:
 8002db4:	b5f8      	push	{r3, r4, r5, r6, r7, lr}
 8002db6:	bf00      	nop
 8002db8:	bcf8      	pop	{r3, r4, r5, r6, r7}
 8002dba:	bc08      	pop	{r3}
 8002dbc:	469e      	mov	lr, r3
 8002dbe:	4770      	bx	lr
